(dp0
S'blogger'
p1
(lp2
sS'bio_html'
p3
(lp4
S"Born in Orange, Cali. Raised in Houston, Texas. Work in MLM and social networking because I believe that in order to get what you want in life you must help others get what they want so that is what I do and I enjoy it very much. I am going to open a chain of massage therapy slash tea shops where people can come in and learn how to live healthy, stress-free lives. Many of us are good people but poor observers. The way we perceive our reality most of the time isn't very helpful to the planet. See, many of us don't understand that our thoughts manifest to create our reality and that we have the power to choose how we perceive it therefore making our experience either negative or positive depending on how we want to see it. If you have any questions or need any help in your life, please do not hesitate to contact me! I would love to help in any way I can.Everyone needs help sometimes even the great masters of masters :)"
p5
aS"Born in Orange, Cali. Raised in Houston, Texas. Work in MLM and social networking because I believe that in order to get what you want in life you must help others get what they want so that is what I do and I enjoy it very much. I am going to open a chain of massage therapy slash tea shops where people can come in and learn how to live healthy, stress-free lives. Many of us are good people but poor observers. The way we perceive our reality most of the time isn't very helpful to the planet. See, many of us don't understand that our thoughts manifest to create our reality and that we have the power to choose how we perceive it therefore making our experience either negative or positive depending on how we want to see it. If you have any questions or need any help in your life, please do not hesitate to contact me! I would love to help in any way I can.Everyone needs help sometimes even the great masters of masters :)"
p6
asS'dribbble'
p7
(lp8
sS'city'
p9
(lp10
sS'500px'
p11
(lp12
sS'foursquare'
p13
(lp14
sS'wordpress'
p15
(lp16
S'http://learn4groceries.wordpress.com'
p17
asS'location'
p18
(lp19
sS'interests'
p20
(lp21
sS'medium'
p22
(lp23
sS'lastname'
p24
(lp25
S'Serratos'
p26
asS'company'
p27
(lp28
sS'quora'
p29
(lp30
sS'phone'
p31
(lp32
sS'etsy'
p33
(lp34
sS'gplus'
p35
(lp36
sS'vimeo'
p37
(lp38
sS'instagram'
p39
(lp40
sS'twitter'
p41
(lp42
S'https://www.twitter.com/alxwk'
p43
asS'vk'
p44
(lp45
sS'vine'
p46
(lp47
sS'linkedin'
p48
(lp49
sS'tumblr'
p50
(lp51
sS'strava'
p52
(lp53
sS'fitbit'
p54
(lp55
sS'weibo'
p56
(lp57
sS'pinterest'
p58
(lp59
sS'wikipedia'
p60
(lp61
sS'state'
p62
(lp63
sS'flickr'
p64
(lp65
sS'email'
p66
(lp67
sS'goodreads'
p68
(lp69
sS'jobs'
p70
(lp71
sS'firstname'
p72
(lp73
S'Alex'
p74
asS'spotify'
p75
(lp76
sS'kickstarter'
p77
(lp78
sS'fb'
p79
(lp80
S'http://www.facebook.com/alexkills'
p81
asS'behance'
p82
(lp83
sS'soundcloud'
p84
(lp85
sS'github'
p86
(lp87
sS'yelp'
p88
(lp89
sS'country'
p90
(lp91
sS'youtube'
p92
(lp93
sS'websites'
p94
(lp95
S'http://mpbmasterminds.com/webinar/?s1=a247'
p96
aS'http://mpbmasterminds.com/report/?s1=a247'
p97
aS'http://mpbtoday.com/a247'
p98
asS'bio_text'
p99
S"Born in Orange, Cali. Raised in Houston, Texas. Work in MLM and social networking because I believe that in order to get what you want in life you must help others get what they want so that is what I do and I enjoy it very much. I am going to open a chain of massage therapy slash tea shops where people can come in and learn how to live healthy, stress-free lives. Many of us are good people but poor observers. The way we perceive our reality most of the time isn't very helpful to the planet. See, many of us don't understand that our thoughts manifest to create our reality and that we have the power to choose how we perceive it therefore making our experience either negative or positive depending on how we want to see it. If you have any questions or need any help in your life, please do not hesitate to contact me! I would love to help in any way I can.Everyone needs help sometimes even the great masters of masters :)"
p100
s.