(dp0
S'blogger'
p1
(lp2
sS'bio_html'
p3
(lp4
S'Soy orgullosamente Colombiano. Nac en la puerta del Llano (Villavicencio) y desde muy pequeo sal hacia otras tierras hasta llegar a Pereira donde viv la mayor parte de mi vida. All me forj un camino en lo Deportivo, laboral y familiar, ya que en esta ciudad conoc a Gloria Patricia la que hoy en da es mi Esposa, Amiga, Compaera, confidente y la madre de mis 2 hijos Juan Sebastian y Juliana. Hace 10 aos llegamos a Santa Marta como resultado de una Promocion Laboral y aunque ya no trabajo para la misma Compaia, me enamor de esta tierra que me ha brindado alternativas de vida y grandes oportunidades. Actualmente laboro para la compaia Claro Colombia- Soluciones Fijas en la cual me desempeo como Supervisor en el rea Logstica.Formacin Academica:Estudie Tcnica Bsica en Computadores, Tcnica en Gestin Administrativa, Liderazgo de una empresa Competitiva ( Convenio Wilson Lerning-SENA) inicie estudios de Administracin Pblica en la ESAP. Ingles Bsico, Logstica Comercial y Manejo de Conflictos en el rea Administrativa en el SENA.'
p5
aS'Soy orgullosamente Colombiano. Nac en la puerta del Llano (Villavicencio) y desde muy pequeo sal hacia otras tierras hasta llegar a Pereira donde viv la mayor parte de mi vida. All me forj un camino en lo Deportivo, laboral y familiar, ya que en esta ciudad conoc a Gloria Patricia la que hoy en da es mi Esposa, Amiga, Compaera, confidente y la madre de mis 2 hijos Juan Sebastian y Juliana. Hace 10 aos llegamos a Santa Marta como resultado de una Promocion Laboral y aunque ya no trabajo para la misma Compaia, me enamor de esta tierra que me ha brindado alternativas de vida y grandes oportunidades. Actualmente laboro para la compaia Claro Colombia- Soluciones Fijas en la cual me desempeo como Supervisor en el rea Logstica.Formacin Academica:Estudie Tcnica Bsica en Computadores, Tcnica en Gestin Administrativa, Liderazgo de una empresa Competitiva ( Convenio Wilson Lerning-SENA) inicie estudios de Administracin Pblica en la ESAP. Ingles Bsico, Logstica Comercial y Manejo de Conflictos en el rea Administrativa en el SENA.'
p6
asS'dribbble'
p7
(lp8
sS'city'
p9
(lp10
sS'500px'
p11
(lp12
sS'foursquare'
p13
(lp14
sS'wordpress'
p15
(lp16
sS'location'
p17
(lp18
S'Barranquilla, Atlantico, Colombia'
p19
asS'interests'
p20
(lp21
S'lectura'
p22
aS'deportes en general'
p23
aS'viajar'
p24
aS'musica'
p25
aS'cinema'
p26
aS'vida familiar'
p27
asS'medium'
p28
(lp29
sS'lastname'
p30
(lp31
S'Marin Zuluaga'
p32
asS'company'
p33
(lp34
sS'quora'
p35
(lp36
sS'phone'
p37
(lp38
sS'etsy'
p39
(lp40
sS'gplus'
p41
(lp42
sS'vimeo'
p43
(lp44
sS'instagram'
p45
(lp46
sS'twitter'
p47
(lp48
sS'vk'
p49
(lp50
sS'vine'
p51
(lp52
sS'linkedin'
p53
(lp54
sS'tumblr'
p55
(lp56
sS'strava'
p57
(lp58
sS'fitbit'
p59
(lp60
sS'weibo'
p61
(lp62
sS'pinterest'
p63
(lp64
sS'wikipedia'
p65
(lp66
sS'state'
p67
(lp68
sS'flickr'
p69
(lp70
sS'email'
p71
(lp72
sS'goodreads'
p73
(lp74
sS'jobs'
p75
(lp76
S'Claro Colombia- Soluciones Fijas'
p77
asS'firstname'
p78
(lp79
S'Alberto'
p80
asS'spotify'
p81
(lp82
sS'kickstarter'
p83
(lp84
sS'fb'
p85
(lp86
sS'behance'
p87
(lp88
sS'soundcloud'
p89
(lp90
sS'github'
p91
(lp92
sS'yelp'
p93
(lp94
sS'country'
p95
(lp96
sS'youtube'
p97
(lp98
sS'websites'
p99
(lp100
S'https://twitter.com/marin1169'
p101
aS'http://www.facebook.com/alberto.marinzuluaga'
p102
asS'bio_text'
p103
S'Soy orgullosamente Colombiano. Nac en la puerta del Llano (Villavicencio) y desde muy pequeo sal hacia otras tierras hasta llegar a Pereira donde viv la mayor parte de mi vida. All me forj un camino en lo Deportivo, laboral y familiar, ya que en esta ciudad conoc a Gloria Patricia la que hoy en da es mi Esposa, Amiga, Compaera, confidente y la madre de mis 2 hijos Juan Sebastian y Juliana. Hace 10 aos llegamos a Santa Marta como resultado de una Promocion Laboral y aunque ya no trabajo para la misma Compaia, me enamor de esta tierra que me ha brindado alternativas de vida y grandes oportunidades. Actualmente laboro para la compaia Claro Colombia- Soluciones Fijas en la cual me desempeo como Supervisor en el rea Logstica.Formacin Academica:Estudie Tcnica Bsica en Computadores, Tcnica en Gestin Administrativa, Liderazgo de una empresa Competitiva ( Convenio Wilson Lerning-SENA) inicie estudios de Administracin Pblica en la ESAP. Ingles Bsico, Logstica Comercial y Manejo de Conflictos en el rea Administrativa en el SENA.'
p104
s.