(dp0
S'blogger'
p1
(lp2
sS'bio_html'
p3
(lp4
S'Toda mi vida me he considerado una persona muy afortunada, estoy rodeada de una familia muy especial y unos amigos extraordinarios, soy feliz de haber crecido en San Andres , una isla pequea pero muy linda, que me dio la oportunidad de vivir junto al mar y gozar de el.me encanta atreverme a hacer de todo, amo los deportes extremos,el arte, la msica , las pelculas romnticas, de comedia y terror. Soy la llorona numero uno de la familia y eso por que soy una persona re sensible, tmida y extremadamente cariosa, me agrada conocer gente nueva y soy muy abierta a vivir experiencias en nuevos lugares y con nuevas personas.Mi reciente pasin la publicidad, es la carrera que estoy estudiando y estoy dispuesta a ponerle toda la verraquera posible :D'
p5
aS'Toda mi vida me he considerado una persona muy afortunada, estoy rodeada de una familia muy especial y unos amigos extraordinarios, soy feliz de haber crecido en San Andres , una isla pequea pero muy linda, que me dio la oportunidad de vivir junto al mar y gozar de el.me encanta atreverme a hacer de todo, amo los deportes extremos,el arte, la msica , las pelculas romnticas, de comedia y terror. Soy la llorona numero uno de la familia y eso por que soy una persona re sensible, tmida y extremadamente cariosa, me agrada conocer gente nueva y soy muy abierta a vivir experiencias en nuevos lugares y con nuevas personas.Mi reciente pasin la publicidad, es la carrera que estoy estudiando y estoy dispuesta a ponerle toda la verraquera posible :D'
p6
asS'dribbble'
p7
(lp8
sS'city'
p9
(lp10
sS'500px'
p11
(lp12
sS'foursquare'
p13
(lp14
sS'wordpress'
p15
(lp16
sS'location'
p17
(lp18
S'BOGOTA (Colombia)'
p19
asS'interests'
p20
(lp21
sS'medium'
p22
(lp23
sS'lastname'
p24
(lp25
S'Zuluaga'
p26
asS'company'
p27
(lp28
sS'quora'
p29
(lp30
sS'phone'
p31
(lp32
sS'etsy'
p33
(lp34
sS'gplus'
p35
(lp36
sS'vimeo'
p37
(lp38
sS'instagram'
p39
(lp40
sS'twitter'
p41
(lp42
S'https://www.twitter.com/AlejazvZuluag'
p43
asS'vk'
p44
(lp45
sS'vine'
p46
(lp47
sS'linkedin'
p48
(lp49
sS'tumblr'
p50
(lp51
sS'strava'
p52
(lp53
sS'fitbit'
p54
(lp55
sS'weibo'
p56
(lp57
sS'pinterest'
p58
(lp59
sS'wikipedia'
p60
(lp61
sS'state'
p62
(lp63
sS'flickr'
p64
(lp65
sS'email'
p66
(lp67
sS'goodreads'
p68
(lp69
sS'jobs'
p70
(lp71
S'Estudiante de publicidad'
p72
asS'firstname'
p73
(lp74
S'Alejandra'
p75
asS'spotify'
p76
(lp77
sS'kickstarter'
p78
(lp79
sS'fb'
p80
(lp81
S'http://www.facebook.com/alejandra.zuluagavelilla'
p82
asS'behance'
p83
(lp84
sS'soundcloud'
p85
(lp86
sS'github'
p87
(lp88
sS'yelp'
p89
(lp90
sS'country'
p91
(lp92
sS'youtube'
p93
(lp94
sS'websites'
p95
(lp96
S'http://alejazuluagavelilla.blogspot.com'
p97
aS'http://alejazuluagavelilla.blogspot.com'
p98
asS'bio_text'
p99
S'Toda mi vida me he considerado una persona muy afortunada, estoy rodeada de una familia muy especial y unos amigos extraordinarios, soy feliz de haber crecido en San Andres , una isla pequea pero muy linda, que me dio la oportunidad de vivir junto al mar y gozar de el.me encanta atreverme a hacer de todo, amo los deportes extremos,el arte, la msica , las pelculas romnticas, de comedia y terror. Soy la llorona numero uno de la familia y eso por que soy una persona re sensible, tmida y extremadamente cariosa, me agrada conocer gente nueva y soy muy abierta a vivir experiencias en nuevos lugares y con nuevas personas.Mi reciente pasin la publicidad, es la carrera que estoy estudiando y estoy dispuesta a ponerle toda la verraquera posible :D'
p100
s.