(dp0
S'blogger'
p1
(lp2
sS'bio_html'
p3
(lp4
S''
p5
ag5
asS'dribbble'
p6
(lp7
sS'city'
p8
(lp9
sS'500px'
p10
(lp11
sS'foursquare'
p12
(lp13
sS'wordpress'
p14
(lp15
S'http://reveriesmediagroup.wordpress.com'
p16
asS'location'
p17
(lp18
sS'interests'
p19
(lp20
sS'medium'
p21
(lp22
sS'lastname'
p23
(lp24
S'Serrato'
p25
asS'company'
p26
(lp27
sS'quora'
p28
(lp29
sS'phone'
p30
(lp31
sS'etsy'
p32
(lp33
sS'gplus'
p34
(lp35
sS'vimeo'
p36
(lp37
S'http://vimeo.com/user5459239'
p38
asS'instagram'
p39
(lp40
S'http://instagram.com/drewserrato'
p41
asS'twitter'
p42
(lp43
S'https://www.twitter.com/DrewSerrato'
p44
asS'vk'
p45
(lp46
sS'vine'
p47
(lp48
sS'linkedin'
p49
(lp50
S'http://www.linkedin.com/pub/andrew-serrato/28/a69/892'
p51
asS'tumblr'
p52
(lp53
S'http://drewserrato.tumblr.com'
p54
asS'strava'
p55
(lp56
sS'fitbit'
p57
(lp58
sS'weibo'
p59
(lp60
sS'pinterest'
p61
(lp62
sS'wikipedia'
p63
(lp64
sS'state'
p65
(lp66
sS'flickr'
p67
(lp68
sS'email'
p69
(lp70
sS'goodreads'
p71
(lp72
sS'jobs'
p73
(lp74
sS'firstname'
p75
(lp76
S'Andrew'
p77
asS'spotify'
p78
(lp79
sS'kickstarter'
p80
(lp81
sS'fb'
p82
(lp83
sS'behance'
p84
(lp85
sS'soundcloud'
p86
(lp87
sS'github'
p88
(lp89
sS'yelp'
p90
(lp91
sS'country'
p92
(lp93
sS'youtube'
p94
(lp95
sS'websites'
p96
(lp97
sS'bio_text'
p98
g5
s.