(dp0
S'blogger'
p1
(lp2
sS'bio_html'
p3
(lp4
S"I am an Electrical Engineer graduated from Bolivarian Pontific University and I will study nex year to achieve my master's degree, I am 25 years old and I like workout at gym, listen Trance music and go out once in a while. This is my profile to my first Blog Page, I hope you enjoy this page..."
p5
aS"I am an Electrical Engineer graduated from Bolivarian Pontific University and I will study nex year to achieve my master's degree, I am 25 years old and I like workout at gym, listen Trance music and go out once in a while. This is my profile to my first Blog Page, I hope you enjoy this page..."
p6
asS'dribbble'
p7
(lp8
sS'city'
p9
(lp10
sS'500px'
p11
(lp12
sS'foursquare'
p13
(lp14
sS'wordpress'
p15
(lp16
sS'location'
p17
(lp18
S'Medelln, Colombia'
p19
asS'interests'
p20
(lp21
sS'medium'
p22
(lp23
sS'lastname'
p24
(lp25
S'Zuluaga'
p26
asS'company'
p27
(lp28
sS'quora'
p29
(lp30
sS'phone'
p31
(lp32
sS'etsy'
p33
(lp34
sS'gplus'
p35
(lp36
S'http://plus.google.com/105992178415701581552/'
p37
asS'vimeo'
p38
(lp39
sS'instagram'
p40
(lp41
S'http://instagram.com/andresgzuluaga'
p42
asS'twitter'
p43
(lp44
S'https://www.twitter.com/andreszuluagam'
p45
asS'vk'
p46
(lp47
sS'vine'
p48
(lp49
sS'linkedin'
p50
(lp51
sS'tumblr'
p52
(lp53
sS'strava'
p54
(lp55
sS'fitbit'
p56
(lp57
sS'weibo'
p58
(lp59
sS'pinterest'
p60
(lp61
sS'wikipedia'
p62
(lp63
sS'state'
p64
(lp65
sS'flickr'
p66
(lp67
sS'email'
p68
(lp69
sS'goodreads'
p70
(lp71
sS'jobs'
p72
(lp73
sS'firstname'
p74
(lp75
S'Andrs'
p76
asS'spotify'
p77
(lp78
sS'kickstarter'
p79
(lp80
sS'fb'
p81
(lp82
S'http://www.facebook.com/azuluaga'
p83
asS'behance'
p84
(lp85
sS'soundcloud'
p86
(lp87
sS'github'
p88
(lp89
sS'yelp'
p90
(lp91
sS'country'
p92
(lp93
sS'youtube'
p94
(lp95
sS'websites'
p96
(lp97
sS'bio_text'
p98
S"I am an Electrical Engineer graduated from Bolivarian Pontific University and I will study nex year to achieve my master's degree, I am 25 years old and I like workout at gym, listen Trance music and go out once in a while. This is my profile to my first Blog Page, I hope you enjoy this page..."
p99
s.