(dp0
S'blogger'
p1
(lp2
sS'bio_html'
p3
(lp4
S'Im a Industrial engineer and self-employed. I was born in Manizales, a beautiful and small city in the Colombian coffee axis. I live in Medellin since 2 year ago, and even if I miss Manizales I really like Medellin and its people.I love animals, then I live with a cat called Lola, she is my faithful companionship. On my free time I like to share with friends and do handwork, because I really enjoy it and have hability for doing.I am in a continuons learning process to be better than me, and I hope that the future only can bring me good things.'
p5
aS'Im a Industrial engineer and self-employed. I was born in Manizales, a beautiful and small city in the Colombian coffee axis. I live in Medellin since 2 year ago, and even if I miss Manizales I really like Medellin and its people.I love animals, then I live with a cat called Lola, she is my faithful companionship. On my free time I like to share with friends and do handwork, because I really enjoy it and have hability for doing.I am in a continuons learning process to be better than me, and I hope that the future only can bring me good things.'
p6
asS'dribbble'
p7
(lp8
sS'city'
p9
(lp10
sS'500px'
p11
(lp12
sS'foursquare'
p13
(lp14
sS'wordpress'
p15
(lp16
sS'location'
p17
(lp18
S'Medelln, Antioquia, Colombia'
p19
asS'interests'
p20
(lp21
S'animals'
p22
aS'listeningtomusic'
p23
asS'medium'
p24
(lp25
sS'lastname'
p26
(lp27
S'Zuluaga'
p28
asS'company'
p29
(lp30
sS'quora'
p31
(lp32
sS'phone'
p33
(lp34
sS'etsy'
p35
(lp36
sS'gplus'
p37
(lp38
sS'vimeo'
p39
(lp40
sS'instagram'
p41
(lp42
sS'twitter'
p43
(lp44
sS'vk'
p45
(lp46
sS'vine'
p47
(lp48
sS'linkedin'
p49
(lp50
sS'tumblr'
p51
(lp52
sS'strava'
p53
(lp54
sS'fitbit'
p55
(lp56
sS'weibo'
p57
(lp58
sS'pinterest'
p59
(lp60
sS'wikipedia'
p61
(lp62
sS'state'
p63
(lp64
sS'flickr'
p65
(lp66
sS'email'
p67
(lp68
sS'goodreads'
p69
(lp70
sS'jobs'
p71
(lp72
S'Too Soft'
p73
asS'firstname'
p74
(lp75
S'Anglica'
p76
asS'spotify'
p77
(lp78
sS'kickstarter'
p79
(lp80
sS'fb'
p81
(lp82
sS'behance'
p83
(lp84
sS'soundcloud'
p85
(lp86
sS'github'
p87
(lp88
sS'yelp'
p89
(lp90
sS'country'
p91
(lp92
sS'youtube'
p93
(lp94
sS'websites'
p95
(lp96
sS'bio_text'
p97
S'Im a Industrial engineer and self-employed. I was born in Manizales, a beautiful and small city in the Colombian coffee axis. I live in Medellin since 2 year ago, and even if I miss Manizales I really like Medellin and its people.I love animals, then I live with a cat called Lola, she is my faithful companionship. On my free time I like to share with friends and do handwork, because I really enjoy it and have hability for doing.I am in a continuons learning process to be better than me, and I hope that the future only can bring me good things.'
p98
s.