(dp0
S'blogger'
p1
(lp2
sS'bio_html'
p3
(lp4
S'Vivo en el municipio del peol, Mi trayectoriade de vida cuenta con varias experiencias laborales en diferentes campos , me he desempeado como vendedora ,supervisora y hace 3 aos me desempeo como asesora comercial en Edatel . Soy tecnica en administracion de empresas, me siento muy contenta y comprometida con esta nueva oportunidad de aprendizaje'
p5
aS'Vivo en el municipio del peol, Mi trayectoriade de vida cuenta con varias experiencias laborales en diferentes campos , me he desempeado como vendedora ,supervisora y hace 3 aos me desempeo como asesora comercial en Edatel . Soy tecnica en administracion de empresas, me siento muy contenta y comprometida con esta nueva oportunidad de aprendizaje'
p6
asS'dribbble'
p7
(lp8
sS'city'
p9
(lp10
sS'500px'
p11
(lp12
sS'foursquare'
p13
(lp14
sS'wordpress'
p15
(lp16
sS'location'
p17
(lp18
sS'interests'
p19
(lp20
sS'medium'
p21
(lp22
sS'lastname'
p23
(lp24
S'Ramirez Zuluaga'
p25
asS'company'
p26
(lp27
sS'quora'
p28
(lp29
sS'phone'
p30
(lp31
sS'etsy'
p32
(lp33
sS'gplus'
p34
(lp35
sS'vimeo'
p36
(lp37
sS'instagram'
p38
(lp39
sS'twitter'
p40
(lp41
sS'vk'
p42
(lp43
sS'vine'
p44
(lp45
sS'linkedin'
p46
(lp47
sS'tumblr'
p48
(lp49
sS'strava'
p50
(lp51
sS'fitbit'
p52
(lp53
sS'weibo'
p54
(lp55
sS'pinterest'
p56
(lp57
sS'wikipedia'
p58
(lp59
sS'state'
p60
(lp61
sS'flickr'
p62
(lp63
sS'email'
p64
(lp65
sS'goodreads'
p66
(lp67
sS'jobs'
p68
(lp69
sS'firstname'
p70
(lp71
S'Beatriz'
p72
asS'spotify'
p73
(lp74
sS'kickstarter'
p75
(lp76
sS'fb'
p77
(lp78
S'https://www.facebook.com/app_scoped_user_id/1397507217246211/'
p79
asS'behance'
p80
(lp81
sS'soundcloud'
p82
(lp83
sS'github'
p84
(lp85
sS'yelp'
p86
(lp87
sS'country'
p88
(lp89
sS'youtube'
p90
(lp91
sS'websites'
p92
(lp93
sS'bio_text'
p94
S'Vivo en el municipio del peol, Mi trayectoriade de vida cuenta con varias experiencias laborales en diferentes campos , me he desempeado como vendedora ,supervisora y hace 3 aos me desempeo como asesora comercial en Edatel . Soy tecnica en administracion de empresas, me siento muy contenta y comprometida con esta nueva oportunidad de aprendizaje'
p95
s.