(dp0
S'blogger'
p1
(lp2
sS'bio_html'
p3
(lp4
S'Hola. Soy Carmen Alicia Zuluaga RivasVivo en el municipio de Buenaventura,Valle del Cauca y naci y fui criada en el mismo municipio. Mi formacion academica es Bachiller Comercial del Colegio Liceo Femenino del Pacifico .trabajo en Tecnoquimica S.A. como asesora de ventas, mi interes profesional es adquirir conocimientos para asi plasmarlo en mi vida laboral y alcanzar mi proyecto de vida que es ser una profesional .En mis tiempos libres me gusta escuchar musica .'
p5
aS'Hola. Soy Carmen Alicia Zuluaga RivasVivo en el municipio de Buenaventura,Valle del Cauca y naci y fui criada en el mismo municipio. Mi formacion academica es Bachiller Comercial del Colegio Liceo Femenino del Pacifico .trabajo en Tecnoquimica S.A. como asesora de ventas, mi interes profesional es adquirir conocimientos para asi plasmarlo en mi vida laboral y alcanzar mi proyecto de vida que es ser una profesional .En mis tiempos libres me gusta escuchar musica .'
p6
asS'dribbble'
p7
(lp8
sS'city'
p9
(lp10
sS'500px'
p11
(lp12
sS'foursquare'
p13
(lp14
sS'wordpress'
p15
(lp16
sS'location'
p17
(lp18
S'Buenaventura'
p19
aS'Valle del cauca'
p20
asS'interests'
p21
(lp22
sS'medium'
p23
(lp24
sS'lastname'
p25
(lp26
S'Zuluaga Rivas'
p27
asS'company'
p28
(lp29
sS'quora'
p30
(lp31
sS'phone'
p32
(lp33
sS'etsy'
p34
(lp35
sS'gplus'
p36
(lp37
sS'vimeo'
p38
(lp39
sS'instagram'
p40
(lp41
sS'twitter'
p42
(lp43
sS'vk'
p44
(lp45
sS'vine'
p46
(lp47
sS'linkedin'
p48
(lp49
sS'tumblr'
p50
(lp51
sS'strava'
p52
(lp53
sS'fitbit'
p54
(lp55
sS'weibo'
p56
(lp57
sS'pinterest'
p58
(lp59
sS'wikipedia'
p60
(lp61
sS'state'
p62
(lp63
sS'flickr'
p64
(lp65
sS'email'
p66
(lp67
sS'goodreads'
p68
(lp69
sS'jobs'
p70
(lp71
S'Tecnoquimicas S.A'
p72
asS'firstname'
p73
(lp74
S'Carmen Alicia'
p75
asS'spotify'
p76
(lp77
sS'kickstarter'
p78
(lp79
sS'fb'
p80
(lp81
sS'behance'
p82
(lp83
sS'soundcloud'
p84
(lp85
sS'github'
p86
(lp87
sS'yelp'
p88
(lp89
sS'country'
p90
(lp91
sS'youtube'
p92
(lp93
sS'websites'
p94
(lp95
sS'bio_text'
p96
S'Hola. Soy Carmen Alicia Zuluaga RivasVivo en el municipio de Buenaventura,Valle del Cauca y naci y fui criada en el mismo municipio. Mi formacion academica es Bachiller Comercial del Colegio Liceo Femenino del Pacifico .trabajo en Tecnoquimica S.A. como asesora de ventas, mi interes profesional es adquirir conocimientos para asi plasmarlo en mi vida laboral y alcanzar mi proyecto de vida que es ser una profesional .En mis tiempos libres me gusta escuchar musica .'
p97
s.