(dp0
S'blogger'
p1
(lp2
sS'bio_html'
p3
(lp4
S'Hola, mi nombre es Carmen Elena Zuluaga, tengo 35 aos de edad.Naci en el municipio de Apartado Antioquia y soy casada. Dentro de mis preferencias esta el micro futbol tambien la agricultura. soy cristiana por la misericordia de DIOS.Mis espectativas en este curso es porder adquirir los conocimientos nesesarios que me puedan ser de gran utilidad en el campo laboral.'
p5
aS'Hola, mi nombre es Carmen Elena Zuluaga, tengo 35 aos de edad.Naci en el municipio de Apartado Antioquia y soy casada. Dentro de mis preferencias esta el micro futbol tambien la agricultura. soy cristiana por la misericordia de DIOS.Mis espectativas en este curso es porder adquirir los conocimientos nesesarios que me puedan ser de gran utilidad en el campo laboral.'
p6
asS'dribbble'
p7
(lp8
sS'city'
p9
(lp10
sS'500px'
p11
(lp12
sS'foursquare'
p13
(lp14
sS'wordpress'
p15
(lp16
sS'location'
p17
(lp18
S'Turbo Antioquia'
p19
asS'interests'
p20
(lp21
S'deporte'
p22
aS'Trabajo comunitario'
p23
asS'medium'
p24
(lp25
sS'lastname'
p26
(lp27
S'Zuluaga'
p28
asS'company'
p29
(lp30
sS'quora'
p31
(lp32
sS'phone'
p33
(lp34
S'3124072610- 8210331'
p35
asS'etsy'
p36
(lp37
sS'gplus'
p38
(lp39
sS'vimeo'
p40
(lp41
sS'instagram'
p42
(lp43
sS'twitter'
p44
(lp45
sS'vk'
p46
(lp47
sS'vine'
p48
(lp49
sS'linkedin'
p50
(lp51
sS'tumblr'
p52
(lp53
sS'strava'
p54
(lp55
sS'fitbit'
p56
(lp57
sS'weibo'
p58
(lp59
sS'pinterest'
p60
(lp61
sS'wikipedia'
p62
(lp63
sS'state'
p64
(lp65
sS'flickr'
p66
(lp67
sS'email'
p68
(lp69
sS'goodreads'
p70
(lp71
sS'jobs'
p72
(lp73
S'Comerciante\n Agricultora'
p74
asS'firstname'
p75
(lp76
S'Carmen Elena'
p77
asS'spotify'
p78
(lp79
sS'kickstarter'
p80
(lp81
sS'fb'
p82
(lp83
sS'behance'
p84
(lp85
sS'soundcloud'
p86
(lp87
sS'github'
p88
(lp89
sS'yelp'
p90
(lp91
sS'country'
p92
(lp93
sS'youtube'
p94
(lp95
sS'websites'
p96
(lp97
sS'bio_text'
p98
S'Hola, mi nombre es Carmen Elena Zuluaga, tengo 35 aos de edad.Naci en el municipio de Apartado Antioquia y soy casada. Dentro de mis preferencias esta el micro futbol tambien la agricultura. soy cristiana por la misericordia de DIOS.Mis espectativas en este curso es porder adquirir los conocimientos nesesarios que me puedan ser de gran utilidad en el campo laboral.'
p99
s.