(dp0
S'blogger'
p1
(lp2
S'http://carolinazuluaga1989.blogspot.com'
p3
asS'bio_html'
p4
(lp5
S'Comunicadora Social con un enfoque Digital. Intereses en Marketing Digital, TIC, Social Media, SEO, Apps, Redes Sociales.'
p6
aS'Comunicadora Social con un enfoque Digital. Intereses en Marketing Digital, TIC, Social Media, SEO, Apps, Redes Sociales.'
p7
asS'dribbble'
p8
(lp9
sS'city'
p10
(lp11
sS'500px'
p12
(lp13
sS'foursquare'
p14
(lp15
sS'wordpress'
p16
(lp17
sS'location'
p18
(lp19
S'Medelln, Antioquia.'
p20
asS'interests'
p21
(lp22
S'Comunicacin'
p23
aS'Digital'
p24
aS'Seo'
p25
aS'Social Media'
p26
aS'Redes Sociales'
p27
aS'Apps'
p28
aS'Marketing digital'
p29
asS'medium'
p30
(lp31
sS'lastname'
p32
(lp33
S'Zuluaga'
p34
asS'company'
p35
(lp36
sS'quora'
p37
(lp38
sS'phone'
p39
(lp40
sS'etsy'
p41
(lp42
sS'gplus'
p43
(lp44
sS'vimeo'
p45
(lp46
sS'instagram'
p47
(lp48
S'http://instagram.com/carozuluaga'
p49
asS'twitter'
p50
(lp51
S'https://www.twitter.com/CarolinaZuluaga'
p52
asS'vk'
p53
(lp54
sS'vine'
p55
(lp56
sS'linkedin'
p57
(lp58
sS'tumblr'
p59
(lp60
S'http://carozuluaga.tumblr.com'
p61
asS'strava'
p62
(lp63
sS'fitbit'
p64
(lp65
sS'weibo'
p66
(lp67
sS'pinterest'
p68
(lp69
sS'wikipedia'
p70
(lp71
sS'state'
p72
(lp73
sS'flickr'
p74
(lp75
sS'email'
p76
(lp77
sS'goodreads'
p78
(lp79
sS'jobs'
p80
(lp81
S'Lotera de Medelln'
p82
asS'firstname'
p83
(lp84
S'Carolina'
p85
asS'spotify'
p86
(lp87
sS'kickstarter'
p88
(lp89
sS'fb'
p90
(lp91
S'https://www.facebook.com/caritozuluaga'
p92
asS'behance'
p93
(lp94
sS'soundcloud'
p95
(lp96
sS'github'
p97
(lp98
sS'yelp'
p99
(lp100
sS'country'
p101
(lp102
sS'youtube'
p103
(lp104
S'http://www.youtube.com/user/carolinazuluaga89'
p105
asS'websites'
p106
(lp107
sS'bio_text'
p108
S'Comunicadora Social con un enfoque Digital. Intereses en Marketing Digital, TIC, Social Media, SEO, Apps, Redes Sociales.'
p109
s.