(dp0
S'blogger'
p1
(lp2
sS'bio_html'
p3
(lp4
S'Hola! Mi nombre es Christian Zuluaga, crec en Medelln, Antioqua, la ciudad de la eterna primavera. Despus de haberme graduado del bachillerato me fui a vivir a Estados Unidos en bsqueda del sueo americano. All empec mi carrera universitaria y laboral. Ahora, soy un diseador y desarrollador web, y tambin un Contador. S, un contador! Me gradu en 2012 de Calumet College of Saint Joseph, una universidad privada en Hammond, IN, y he logrado una doble titulacin en Sistemas de Informacin y Contabilidad. Me encantan los ordenadores y los nmeros! Sin embargo, tambin me gusta la programacin, diseo y creacin de aplicaciones web. Adems, ahora en da se ve muy relacionada la contabilidad con la tecnologa y eso es lo que trato de hacer cada da en mi trabajo, ayudar por medio de la tecnologa a empresas para que sean organizadas financieramente.Soy propietario de un sitio web que desarrolla pginas y aplicaciones web y asimismo hago parte Evolution Tax, una empresa de asesora financiera y declaracin de impuestos.Siempre estoy motivado con mis metas que son muy importantes para m. Me ayuda a seguir trabajando, aprendiendo y compartiendo con los dems, y lo ms importante que me ayuda a ser ms competente en lo que estoy haciendo.Educacin es el camino a una vida exitosa.'
p5
aS'Hola! Mi nombre es Christian Zuluaga, crec en Medelln, Antioqua, la ciudad de la eterna primavera. Despus de haberme graduado del bachillerato me fui a vivir a Estados Unidos en bsqueda del sueo americano. All empec mi carrera universitaria y laboral. Ahora, soy un diseador y desarrollador web, y tambin un Contador. S, un contador! Me gradu en 2012 de Calumet College of Saint Joseph, una universidad privada en Hammond, IN, y he logrado una doble titulacin en Sistemas de Informacin y Contabilidad. Me encantan los ordenadores y los nmeros! Sin embargo, tambin me gusta la programacin, diseo y creacin de aplicaciones web. Adems, ahora en da se ve muy relacionada la contabilidad con la tecnologa y eso es lo que trato de hacer cada da en mi trabajo, ayudar por medio de la tecnologa a empresas para que sean organizadas financieramente.Soy propietario de un sitio web que desarrolla pginas y aplicaciones web y asimismo hago parte Evolution Tax, una empresa de asesora financiera y declaracin de impuestos.Siempre estoy motivado con mis metas que son muy importantes para m. Me ayuda a seguir trabajando, aprendiendo y compartiendo con los dems, y lo ms importante que me ayuda a ser ms competente en lo que estoy haciendo.Educacin es el camino a una vida exitosa.'
p6
asS'dribbble'
p7
(lp8
sS'city'
p9
(lp10
sS'500px'
p11
(lp12
sS'foursquare'
p13
(lp14
sS'wordpress'
p15
(lp16
sS'location'
p17
(lp18
S'Medelln, Antioquia'
p19
asS'interests'
p20
(lp21
S'Tenis de Mesa'
p22
aS'Tecnologa'
p23
aS'wall street'
p24
asS'medium'
p25
(lp26
sS'lastname'
p27
(lp28
S'Zuluaga'
p29
asS'company'
p30
(lp31
sS'quora'
p32
(lp33
sS'phone'
p34
(lp35
sS'etsy'
p36
(lp37
sS'gplus'
p38
(lp39
sS'vimeo'
p40
(lp41
sS'instagram'
p42
(lp43
sS'twitter'
p44
(lp45
S'https://www.twitter.com/christian_zulu'
p46
asS'vk'
p47
(lp48
sS'vine'
p49
(lp50
sS'linkedin'
p51
(lp52
S'https://www.linkedin.com/in/christianzuluaga'
p53
asS'tumblr'
p54
(lp55
sS'strava'
p56
(lp57
sS'fitbit'
p58
(lp59
sS'weibo'
p60
(lp61
sS'pinterest'
p62
(lp63
sS'wikipedia'
p64
(lp65
sS'state'
p66
(lp67
sS'flickr'
p68
(lp69
sS'email'
p70
(lp71
sS'goodreads'
p72
(lp73
sS'jobs'
p74
(lp75
S'Evolution Tax'
p76
asS'firstname'
p77
(lp78
S'Christian'
p79
asS'spotify'
p80
(lp81
sS'kickstarter'
p82
(lp83
sS'fb'
p84
(lp85
sS'behance'
p86
(lp87
sS'soundcloud'
p88
(lp89
sS'github'
p90
(lp91
sS'yelp'
p92
(lp93
sS'country'
p94
(lp95
sS'youtube'
p96
(lp97
sS'websites'
p98
(lp99
S'http://www.christianzuluaga.com'
p100
asS'bio_text'
p101
S'Hola! Mi nombre es Christian Zuluaga, crec en Medelln, Antioqua, la ciudad de la eterna primavera. Despus de haberme graduado del bachillerato me fui a vivir a Estados Unidos en bsqueda del sueo americano. All empec mi carrera universitaria y laboral. Ahora, soy un diseador y desarrollador web, y tambin un Contador. S, un contador! Me gradu en 2012 de Calumet College of Saint Joseph, una universidad privada en Hammond, IN, y he logrado una doble titulacin en Sistemas de Informacin y Contabilidad. Me encantan los ordenadores y los nmeros! Sin embargo, tambin me gusta la programacin, diseo y creacin de aplicaciones web. Adems, ahora en da se ve muy relacionada la contabilidad con la tecnologa y eso es lo que trato de hacer cada da en mi trabajo, ayudar por medio de la tecnologa a empresas para que sean organizadas financieramente.Soy propietario de un sitio web que desarrolla pginas y aplicaciones web y asimismo hago parte Evolution Tax, una empresa de asesora financiera y declaracin de impuestos.Siempre estoy motivado con mis metas que son muy importantes para m. Me ayuda a seguir trabajando, aprendiendo y compartiendo con los dems, y lo ms importante que me ayuda a ser ms competente en lo que estoy haciendo.Educacin es el camino a una vida exitosa.'
p102
s.