(dp0
S'blogger'
p1
(lp2
sS'bio_html'
p3
(lp4
S'Buen dia para todos, vivo en Funza (Cundinamarca), tengo 43 aos, madre de 4 hijos. Soy bachiller, trabajo actualmente como lider en ventas por catalogo con la revista AVON.Mi mayor interes es profundizar en el tema de negocios internacionales para abastecer y ampliar mi formacion academica a nivel de ejercer dicha profesion.Me gusta pasar tiempo con mi familia, ver una pelicula o preparar una buena cena, escuchar musica, leer un libro y salir ha caminar, conociendo y respirando la verdadera naturaleza.'
p5
aS'Buen dia para todos, vivo en Funza (Cundinamarca), tengo 43 aos, madre de 4 hijos. Soy bachiller, trabajo actualmente como lider en ventas por catalogo con la revista AVON.Mi mayor interes es profundizar en el tema de negocios internacionales para abastecer y ampliar mi formacion academica a nivel de ejercer dicha profesion.Me gusta pasar tiempo con mi familia, ver una pelicula o preparar una buena cena, escuchar musica, leer un libro y salir ha caminar, conociendo y respirando la verdadera naturaleza.'
p6
asS'dribbble'
p7
(lp8
sS'city'
p9
(lp10
sS'500px'
p11
(lp12
sS'foursquare'
p13
(lp14
sS'wordpress'
p15
(lp16
sS'location'
p17
(lp18
S'Funza (CUNDINAMARCA)'
p19
asS'interests'
p20
(lp21
S'CONOCER LUGARES'
p22
aS'CANTAR'
p23
aS'NEGOCIOS'
p24
asS'medium'
p25
(lp26
sS'lastname'
p27
(lp28
S'Zuluaga Rodriguez'
p29
asS'company'
p30
(lp31
sS'quora'
p32
(lp33
sS'phone'
p34
(lp35
sS'etsy'
p36
(lp37
sS'gplus'
p38
(lp39
sS'vimeo'
p40
(lp41
sS'instagram'
p42
(lp43
sS'twitter'
p44
(lp45
sS'vk'
p46
(lp47
sS'vine'
p48
(lp49
sS'linkedin'
p50
(lp51
sS'tumblr'
p52
(lp53
sS'strava'
p54
(lp55
sS'fitbit'
p56
(lp57
sS'weibo'
p58
(lp59
sS'pinterest'
p60
(lp61
sS'wikipedia'
p62
(lp63
sS'state'
p64
(lp65
sS'flickr'
p66
(lp67
sS'email'
p68
(lp69
sS'goodreads'
p70
(lp71
sS'jobs'
p72
(lp73
S'LIDER EJECUTIVA EN AVON'
p74
asS'firstname'
p75
(lp76
S'Claudia Fernanda'
p77
asS'spotify'
p78
(lp79
sS'kickstarter'
p80
(lp81
sS'fb'
p82
(lp83
sS'behance'
p84
(lp85
sS'soundcloud'
p86
(lp87
sS'github'
p88
(lp89
sS'yelp'
p90
(lp91
sS'country'
p92
(lp93
sS'youtube'
p94
(lp95
sS'websites'
p96
(lp97
S'https://www.facebook.com/claudiafernanda.zuluagarodriguez'
p98
asS'bio_text'
p99
S'Buen dia para todos, vivo en Funza (Cundinamarca), tengo 43 aos, madre de 4 hijos. Soy bachiller, trabajo actualmente como lider en ventas por catalogo con la revista AVON.Mi mayor interes es profundizar en el tema de negocios internacionales para abastecer y ampliar mi formacion academica a nivel de ejercer dicha profesion.Me gusta pasar tiempo con mi familia, ver una pelicula o preparar una buena cena, escuchar musica, leer un libro y salir ha caminar, conociendo y respirando la verdadera naturaleza.'
p100
s.