(dp0
S'blogger'
p1
(lp2
sS'bio_html'
p3
(lp4
S'Life is A journey, not a destination  -So Is Happiness- NO MUSIC= NO LIFE'
p5
aS'Life is A journey, not a destination  -So Is Happiness- NO MUSIC= NO LIFE'
p6
asS'dribbble'
p7
(lp8
sS'city'
p9
(lp10
sS'500px'
p11
(lp12
sS'foursquare'
p13
(lp14
sS'wordpress'
p15
(lp16
sS'location'
p17
(lp18
S'Envigado'
p19
aS'Medelln, Antioquia'
p20
asS'interests'
p21
(lp22
sS'medium'
p23
(lp24
sS'lastname'
p25
(lp26
S'Zuluaga Penagos'
p27
asS'company'
p28
(lp29
sS'quora'
p30
(lp31
sS'phone'
p32
(lp33
sS'etsy'
p34
(lp35
sS'gplus'
p36
(lp37
sS'vimeo'
p38
(lp39
sS'instagram'
p40
(lp41
S'http://instagram.com/crizuluaga'
p42
asS'twitter'
p43
(lp44
sS'vk'
p45
(lp46
sS'vine'
p47
(lp48
sS'linkedin'
p49
(lp50
sS'tumblr'
p51
(lp52
sS'strava'
p53
(lp54
sS'fitbit'
p55
(lp56
sS'weibo'
p57
(lp58
sS'pinterest'
p59
(lp60
sS'wikipedia'
p61
(lp62
sS'state'
p63
(lp64
sS'flickr'
p65
(lp66
sS'email'
p67
(lp68
sS'goodreads'
p69
(lp70
sS'jobs'
p71
(lp72
sS'firstname'
p73
(lp74
S'Cristina'
p75
asS'spotify'
p76
(lp77
sS'kickstarter'
p78
(lp79
sS'fb'
p80
(lp81
sS'behance'
p82
(lp83
sS'soundcloud'
p84
(lp85
sS'github'
p86
(lp87
sS'yelp'
p88
(lp89
sS'country'
p90
(lp91
sS'youtube'
p92
(lp93
sS'websites'
p94
(lp95
S'http://www.myspace.com/crizzyspace'
p96
asS'bio_text'
p97
S'Life is A journey, not a destination  -So Is Happiness- NO MUSIC= NO LIFE'
p98
s.