(dp0
S'blogger'
p1
(lp2
sS'bio_html'
p3
(lp4
S'Recruiting Manager - Leadership Team - Amazon Web Services'
p5
aS'Recruiting Manager - Leadership Team - Amazon Web Services'
p6
asS'dribbble'
p7
(lp8
sS'city'
p9
(lp10
sS'500px'
p11
(lp12
sS'foursquare'
p13
(lp14
sS'wordpress'
p15
(lp16
sS'location'
p17
(lp18
S'Seattle, Washington, United States'
p19
asS'interests'
p20
(lp21
S'recruiting and staffing'
p22
aS'executive search'
p23
aS'diversity'
p24
asS'medium'
p25
(lp26
sS'lastname'
p27
(lp28
S'Serrato'
p29
asS'company'
p30
(lp31
sS'quora'
p32
(lp33
sS'phone'
p34
(lp35
sS'etsy'
p36
(lp37
sS'gplus'
p38
(lp39
sS'vimeo'
p40
(lp41
sS'instagram'
p42
(lp43
sS'twitter'
p44
(lp45
S'https://www.twitter.com/cserrato77'
p46
asS'vk'
p47
(lp48
sS'vine'
p49
(lp50
sS'linkedin'
p51
(lp52
S'http://www.linkedin.com/in/cserrato77'
p53
asS'tumblr'
p54
(lp55
sS'strava'
p56
(lp57
sS'fitbit'
p58
(lp59
sS'weibo'
p60
(lp61
sS'pinterest'
p62
(lp63
sS'wikipedia'
p64
(lp65
sS'state'
p66
(lp67
sS'flickr'
p68
(lp69
sS'email'
p70
(lp71
sS'goodreads'
p72
(lp73
sS'jobs'
p74
(lp75
S'Amazon Web Services\n Intent Media\n Google\n Amazon\n Microsoft\n Volt'
p76
asS'firstname'
p77
(lp78
S'Crystal'
p79
asS'spotify'
p80
(lp81
sS'kickstarter'
p82
(lp83
sS'fb'
p84
(lp85
sS'behance'
p86
(lp87
sS'soundcloud'
p88
(lp89
sS'github'
p90
(lp91
sS'yelp'
p92
(lp93
sS'country'
p94
(lp95
sS'youtube'
p96
(lp97
sS'websites'
p98
(lp99
sS'bio_text'
p100
S'Recruiting Manager - Leadership Team - Amazon Web Services'
p101
s.