(dp0
S'blogger'
p1
(lp2
sS'bio_html'
p3
(lp4
S'Periodista, profesor en temas de Web 2.0 y Redes Sociales. Editor de Manista.com (Pelota Vasca). Nacido en Durango, vivo en Pamplona y tengo ascendencia riojana.'
p5
aS'Periodista, profesor en temas de Web 2.0 y Redes Sociales. Editor de Manista.com (Pelota Vasca). Nacido en Durango, vivo en Pamplona y tengo ascendencia riojana.'
p6
asS'dribbble'
p7
(lp8
sS'city'
p9
(lp10
sS'500px'
p11
(lp12
sS'foursquare'
p13
(lp14
sS'wordpress'
p15
(lp16
sS'location'
p17
(lp18
sS'interests'
p19
(lp20
sS'medium'
p21
(lp22
sS'lastname'
p23
(lp24
S'Zuluaga'
p25
asS'company'
p26
(lp27
sS'quora'
p28
(lp29
sS'phone'
p30
(lp31
sS'etsy'
p32
(lp33
sS'gplus'
p34
(lp35
sS'vimeo'
p36
(lp37
sS'instagram'
p38
(lp39
sS'twitter'
p40
(lp41
sS'vk'
p42
(lp43
sS'vine'
p44
(lp45
sS'linkedin'
p46
(lp47
sS'tumblr'
p48
(lp49
sS'strava'
p50
(lp51
sS'fitbit'
p52
(lp53
sS'weibo'
p54
(lp55
sS'pinterest'
p56
(lp57
sS'wikipedia'
p58
(lp59
sS'state'
p60
(lp61
sS'flickr'
p62
(lp63
S'http://www.flickr.com/people/czuluaga/'
p64
asS'email'
p65
(lp66
sS'goodreads'
p67
(lp68
sS'jobs'
p69
(lp70
sS'firstname'
p71
(lp72
S'Carlos J.'
p73
asS'spotify'
p74
(lp75
sS'kickstarter'
p76
(lp77
sS'fb'
p78
(lp79
sS'behance'
p80
(lp81
sS'soundcloud'
p82
(lp83
sS'github'
p84
(lp85
sS'yelp'
p86
(lp87
sS'country'
p88
(lp89
sS'youtube'
p90
(lp91
S'http://www.youtube.com/user/carloszuluaga'
p92
asS'websites'
p93
(lp94
S'http://twitter.com/czuluaga'
p95
aS'http://facebook.com/czuluaga'
p96
asS'bio_text'
p97
S'Periodista, profesor en temas de Web 2.0 y Redes Sociales. Editor de Manista.com (Pelota Vasca). Nacido en Durango, vivo en Pamplona y tengo ascendencia riojana.'
p98
s.