(dp0
S'blogger'
p1
(lp2
sS'bio_html'
p3
(lp4
S'Software Engineer at Hootsuite'
p5
aS'Software Engineer at Hootsuite'
p6
asS'dribbble'
p7
(lp8
sS'city'
p9
(lp10
sS'500px'
p11
(lp12
sS'foursquare'
p13
(lp14
sS'wordpress'
p15
(lp16
sS'location'
p17
(lp18
S'Medelln, Colombia'
p19
aS'Vancouver'
p20
asS'interests'
p21
(lp22
sS'medium'
p23
(lp24
sS'lastname'
p25
(lp26
S'Alvarez Zuluaga'
p27
asS'company'
p28
(lp29
sS'quora'
p30
(lp31
sS'phone'
p32
(lp33
sS'etsy'
p34
(lp35
sS'gplus'
p36
(lp37
sS'vimeo'
p38
(lp39
sS'instagram'
p40
(lp41
sS'twitter'
p42
(lp43
S'http://www.twitter.com/d1egoaz'
p44
asS'vk'
p45
(lp46
sS'vine'
p47
(lp48
sS'linkedin'
p49
(lp50
S'http://www.linkedin.com/in/d1egoaz'
p51
asS'tumblr'
p52
(lp53
sS'strava'
p54
(lp55
sS'fitbit'
p56
(lp57
sS'weibo'
p58
(lp59
sS'pinterest'
p60
(lp61
sS'wikipedia'
p62
(lp63
sS'state'
p64
(lp65
sS'flickr'
p66
(lp67
sS'email'
p68
(lp69
sS'goodreads'
p70
(lp71
sS'jobs'
p72
(lp73
sS'firstname'
p74
(lp75
S'Diego'
p76
asS'spotify'
p77
(lp78
sS'kickstarter'
p79
(lp80
sS'fb'
p81
(lp82
S'http://www.facebook.com/d1egoaz'
p83
asS'behance'
p84
(lp85
sS'soundcloud'
p86
(lp87
sS'github'
p88
(lp89
S'https://github.com/d1egoaz'
p90
asS'yelp'
p91
(lp92
sS'country'
p93
(lp94
sS'youtube'
p95
(lp96
sS'websites'
p97
(lp98
S'http://careers.stackoverflow.com/d1egoaz'
p99
aS'https://bitbucket.org/d1egoaz'
p100
aS'http://www.codeschool.com/users/d1egoaz'
p101
aS'http://d1egoaz.com'
p102
asS'bio_text'
p103
S'Software Engineer at Hootsuite'
p104
s.