(dp0
S'blogger'
p1
(lp2
S'http://danielazuluagasalazar.blogspot.com'
p3
asS'bio_html'
p4
(lp5
S'Estudiante de MERCADEO Y PUBLICIDAD.'
p6
aS'Estudiante de MERCADEO Y PUBLICIDAD.'
p7
asS'dribbble'
p8
(lp9
sS'city'
p10
(lp11
sS'500px'
p12
(lp13
sS'foursquare'
p14
(lp15
sS'wordpress'
p16
(lp17
sS'location'
p18
(lp19
sS'interests'
p20
(lp21
sS'medium'
p22
(lp23
sS'lastname'
p24
(lp25
S'Zuluaga'
p26
asS'company'
p27
(lp28
sS'quora'
p29
(lp30
sS'phone'
p31
(lp32
sS'etsy'
p33
(lp34
sS'gplus'
p35
(lp36
S'http://plus.google.com/101795569731610081184/'
p37
asS'vimeo'
p38
(lp39
sS'instagram'
p40
(lp41
S'http://instagram.com/dzuluagasalazar'
p42
asS'twitter'
p43
(lp44
S'https://www.twitter.com/daniela_zs'
p45
asS'vk'
p46
(lp47
sS'vine'
p48
(lp49
sS'linkedin'
p50
(lp51
sS'tumblr'
p52
(lp53
sS'strava'
p54
(lp55
sS'fitbit'
p56
(lp57
sS'weibo'
p58
(lp59
sS'pinterest'
p60
(lp61
sS'wikipedia'
p62
(lp63
sS'state'
p64
(lp65
sS'flickr'
p66
(lp67
sS'email'
p68
(lp69
sS'goodreads'
p70
(lp71
sS'jobs'
p72
(lp73
sS'firstname'
p74
(lp75
S'Daniela'
p76
asS'spotify'
p77
(lp78
sS'kickstarter'
p79
(lp80
sS'fb'
p81
(lp82
sS'behance'
p83
(lp84
sS'soundcloud'
p85
(lp86
sS'github'
p87
(lp88
sS'yelp'
p89
(lp90
sS'country'
p91
(lp92
sS'youtube'
p93
(lp94
sS'websites'
p95
(lp96
S'http://danielazuluagasalazar.blogspot.com'
p97
asS'bio_text'
p98
S'Estudiante de MERCADEO Y PUBLICIDAD.'
p99
s.