(dp0
S'blogger'
p1
(lp2
sS'bio_html'
p3
(lp4
S''
p5
ag5
asS'dribbble'
p6
(lp7
sS'city'
p8
(lp9
sS'500px'
p10
(lp11
sS'foursquare'
p12
(lp13
sS'wordpress'
p14
(lp15
sS'location'
p16
(lp17
S'Medelln, Antioquia'
p18
asS'interests'
p19
(lp20
S'software engineer'
p21
aS'software development'
p22
aS'philosophy'
p23
asS'medium'
p24
(lp25
sS'lastname'
p26
(lp27
S'Lpez Zuluaga'
p28
asS'company'
p29
(lp30
sS'quora'
p31
(lp32
sS'phone'
p33
(lp34
S'3105357175'
p35
asS'etsy'
p36
(lp37
sS'gplus'
p38
(lp39
sS'vimeo'
p40
(lp41
sS'instagram'
p42
(lp43
sS'twitter'
p44
(lp45
sS'vk'
p46
(lp47
sS'vine'
p48
(lp49
sS'linkedin'
p50
(lp51
sS'tumblr'
p52
(lp53
sS'strava'
p54
(lp55
sS'fitbit'
p56
(lp57
sS'weibo'
p58
(lp59
sS'pinterest'
p60
(lp61
sS'wikipedia'
p62
(lp63
sS'state'
p64
(lp65
sS'flickr'
p66
(lp67
sS'email'
p68
(lp69
sS'goodreads'
p70
(lp71
sS'jobs'
p72
(lp73
S'Alltherooms'
p74
asS'firstname'
p75
(lp76
S'Daniel'
p77
asS'spotify'
p78
(lp79
sS'kickstarter'
p80
(lp81
sS'fb'
p82
(lp83
sS'behance'
p84
(lp85
sS'soundcloud'
p86
(lp87
sS'github'
p88
(lp89
sS'yelp'
p90
(lp91
sS'country'
p92
(lp93
sS'youtube'
p94
(lp95
sS'websites'
p96
(lp97
sS'bio_text'
p98
g5
s.