(dp0
S'blogger'
p1
(lp2
sS'bio_html'
p3
(lp4
S"i'm a bit of a cat lady, you see"
p5
aS"i'm a bit of a cat lady, you see"
p6
asS'dribbble'
p7
(lp8
sS'city'
p9
(lp10
sS'500px'
p11
(lp12
sS'foursquare'
p13
(lp14
sS'wordpress'
p15
(lp16
sS'location'
p17
(lp18
sS'interests'
p19
(lp20
sS'medium'
p21
(lp22
sS'lastname'
p23
(lp24
S'Serrato'
p25
asS'company'
p26
(lp27
sS'quora'
p28
(lp29
sS'phone'
p30
(lp31
sS'etsy'
p32
(lp33
sS'gplus'
p34
(lp35
sS'vimeo'
p36
(lp37
sS'instagram'
p38
(lp39
sS'twitter'
p40
(lp41
S'http://www.twitter.com/demonswilldrown'
p42
asS'vk'
p43
(lp44
sS'vine'
p45
(lp46
sS'linkedin'
p47
(lp48
sS'tumblr'
p49
(lp50
S'http://demonswilldrown.tumblr.com'
p51
asS'strava'
p52
(lp53
sS'fitbit'
p54
(lp55
sS'weibo'
p56
(lp57
sS'pinterest'
p58
(lp59
sS'wikipedia'
p60
(lp61
sS'state'
p62
(lp63
sS'flickr'
p64
(lp65
sS'email'
p66
(lp67
sS'goodreads'
p68
(lp69
sS'jobs'
p70
(lp71
sS'firstname'
p72
(lp73
S'Gaby'
p74
asS'spotify'
p75
(lp76
sS'kickstarter'
p77
(lp78
sS'fb'
p79
(lp80
sS'behance'
p81
(lp82
sS'soundcloud'
p83
(lp84
sS'github'
p85
(lp86
sS'yelp'
p87
(lp88
sS'country'
p89
(lp90
sS'youtube'
p91
(lp92
S'http://www.youtube.com/user/demonswilldrown'
p93
asS'websites'
p94
(lp95
sS'bio_text'
p96
S"i'm a bit of a cat lady, you see"
p97
s.