(dp0
S'blogger'
p1
(lp2
sS'bio_html'
p3
(lp4
S'Im 25, from Bogot Colombia, Designer interested in social innovation, 3d visulitazition, animation, UI andUX, start ups'
p5
aS'Im 25, from Bogot Colombia, Designer interested in social innovation, 3d visulitazition, animation, UI andUX, start ups'
p6
asS'dribbble'
p7
(lp8
sS'city'
p9
(lp10
sS'500px'
p11
(lp12
sS'foursquare'
p13
(lp14
sS'wordpress'
p15
(lp16
sS'location'
p17
(lp18
S'Bogot d.c. - Colombia'
p19
asS'interests'
p20
(lp21
S'social innovation'
p22
aS'3d'
p23
aS'animation'
p24
aS'videogames'
p25
aS'app design'
p26
aS'web design'
p27
aS'startups'
p28
aS'UX'
p29
aS'UI'
p30
asS'medium'
p31
(lp32
sS'lastname'
p33
(lp34
S'Zuluaga'
p35
asS'company'
p36
(lp37
sS'quora'
p38
(lp39
sS'phone'
p40
(lp41
sS'etsy'
p42
(lp43
sS'gplus'
p44
(lp45
sS'vimeo'
p46
(lp47
sS'instagram'
p48
(lp49
sS'twitter'
p50
(lp51
S'https://www.twitter.com/DiegoZwolf'
p52
asS'vk'
p53
(lp54
sS'vine'
p55
(lp56
sS'linkedin'
p57
(lp58
S'http://www.linkedin.com/pub/diego-zuluaga/59/742/582'
p59
asS'tumblr'
p60
(lp61
sS'strava'
p62
(lp63
sS'fitbit'
p64
(lp65
sS'weibo'
p66
(lp67
sS'pinterest'
p68
(lp69
sS'wikipedia'
p70
(lp71
sS'state'
p72
(lp73
sS'flickr'
p74
(lp75
sS'email'
p76
(lp77
sS'goodreads'
p78
(lp79
sS'jobs'
p80
(lp81
S'Freelance'
p82
asS'firstname'
p83
(lp84
S'Diego'
p85
asS'spotify'
p86
(lp87
sS'kickstarter'
p88
(lp89
sS'fb'
p90
(lp91
S'https://www.facebook.com/diego.zuluaga.35'
p92
asS'behance'
p93
(lp94
sS'soundcloud'
p95
(lp96
sS'github'
p97
(lp98
sS'yelp'
p99
(lp100
sS'country'
p101
(lp102
sS'youtube'
p103
(lp104
sS'websites'
p105
(lp106
sS'bio_text'
p107
S'Im 25, from Bogot Colombia, Designer interested in social innovation, 3d visulitazition, animation, UI andUX, start ups'
p108
s.