(dp0
S'blogger'
p1
(lp2
sS'bio_html'
p3
(lp4
S'My name is Elizabet Serrato I born in 1997 in Modesto, CA. Ive lived in Patterson my whole life. I have 2 sisters and 4 brothers. My parernts are from Mexico Guanajuato and the who taugjht me everything i know. i know how to drive, cook, clean, and more. I want to go to a beauty college when i graduate from Del Puerto High School in 2015. My favorit sport id say is volleyball i dont play it much now but i think im still got it. I like to watch soccer game and i go for team America. I love to bake alot of thing at home such as cookies and cakes mostely when i get to decorate them. So this is me and its what i like to do.'
p5
aS'My name is Elizabet Serrato I born in 1997 in Modesto, CA. Ive lived in Patterson my whole life. I have 2 sisters and 4 brothers. My parernts are from Mexico Guanajuato and the who taugjht me everything i know. i know how to drive, cook, clean, and more. I want to go to a beauty college when i graduate from Del Puerto High School in 2015. My favorit sport id say is volleyball i dont play it much now but i think im still got it. I like to watch soccer game and i go for team America. I love to bake alot of thing at home such as cookies and cakes mostely when i get to decorate them. So this is me and its what i like to do.'
p6
asS'dribbble'
p7
(lp8
sS'city'
p9
(lp10
sS'500px'
p11
(lp12
sS'foursquare'
p13
(lp14
sS'wordpress'
p15
(lp16
sS'location'
p17
(lp18
S'Patterson, California'
p19
asS'interests'
p20
(lp21
S'cosmetics'
p22
asS'medium'
p23
(lp24
sS'lastname'
p25
(lp26
S'Serrato'
p27
asS'company'
p28
(lp29
sS'quora'
p30
(lp31
sS'phone'
p32
(lp33
sS'etsy'
p34
(lp35
sS'gplus'
p36
(lp37
sS'vimeo'
p38
(lp39
sS'instagram'
p40
(lp41
sS'twitter'
p42
(lp43
sS'vk'
p44
(lp45
sS'vine'
p46
(lp47
sS'linkedin'
p48
(lp49
sS'tumblr'
p50
(lp51
sS'strava'
p52
(lp53
sS'fitbit'
p54
(lp55
sS'weibo'
p56
(lp57
sS'pinterest'
p58
(lp59
sS'wikipedia'
p60
(lp61
sS'state'
p62
(lp63
sS'flickr'
p64
(lp65
sS'email'
p66
(lp67
sS'goodreads'
p68
(lp69
sS'jobs'
p70
(lp71
sS'firstname'
p72
(lp73
S'Elizabeth'
p74
asS'spotify'
p75
(lp76
sS'kickstarter'
p77
(lp78
sS'fb'
p79
(lp80
sS'behance'
p81
(lp82
sS'soundcloud'
p83
(lp84
sS'github'
p85
(lp86
sS'yelp'
p87
(lp88
sS'country'
p89
(lp90
sS'youtube'
p91
(lp92
sS'websites'
p93
(lp94
sS'bio_text'
p95
S'My name is Elizabet Serrato I born in 1997 in Modesto, CA. Ive lived in Patterson my whole life. I have 2 sisters and 4 brothers. My parernts are from Mexico Guanajuato and the who taugjht me everything i know. i know how to drive, cook, clean, and more. I want to go to a beauty college when i graduate from Del Puerto High School in 2015. My favorit sport id say is volleyball i dont play it much now but i think im still got it. I like to watch soccer game and i go for team America. I love to bake alot of thing at home such as cookies and cakes mostely when i get to decorate them. So this is me and its what i like to do.'
p96
s.