(dp0
S'blogger'
p1
(lp2
sS'bio_html'
p3
(lp4
S'HOLA A TODOS GRACIAS POR VISITAR MI PAGINA PROFECIONAL.QUIERO COMPARTIR CON USTDES TODOS MIS SUEOS Y METAS QUE QUIERO CUMPLIR. DESEO PODER CONTACTAR CON MUCHAS PERSONAS INTERESANTES QUE LES GUSTEN LOS BUENOS NEGOCIOS COMO GANOLIFE Y SI QUIREN SABER MAS DE ESTA OPORTUNIDAD NO DUDES EN VISITAR MI PAGINA.GRACIAS A TODOS!!!'
p5
aS'HOLA A TODOS GRACIAS POR VISITAR MI PAGINA PROFECIONAL.QUIERO COMPARTIR CON USTDES TODOS MIS SUEOS Y METAS QUE QUIERO CUMPLIR. DESEO PODER CONTACTAR CON MUCHAS PERSONAS INTERESANTES QUE LES GUSTEN LOS BUENOS NEGOCIOS COMO GANOLIFE Y SI QUIREN SABER MAS DE ESTA OPORTUNIDAD NO DUDES EN VISITAR MI PAGINA.GRACIAS A TODOS!!!'
p6
asS'dribbble'
p7
(lp8
sS'city'
p9
(lp10
sS'500px'
p11
(lp12
sS'foursquare'
p13
(lp14
sS'wordpress'
p15
(lp16
sS'location'
p17
(lp18
S'Bogot, Colombia'
p19
aS'Colombia, Huila'
p20
asS'interests'
p21
(lp22
sS'medium'
p23
(lp24
sS'lastname'
p25
(lp26
S'Serrato'
p27
asS'company'
p28
(lp29
sS'quora'
p30
(lp31
sS'phone'
p32
(lp33
sS'etsy'
p34
(lp35
sS'gplus'
p36
(lp37
sS'vimeo'
p38
(lp39
sS'instagram'
p40
(lp41
sS'twitter'
p42
(lp43
S'https://www.twitter.com/fernandoserrat4'
p44
asS'vk'
p45
(lp46
sS'vine'
p47
(lp48
sS'linkedin'
p49
(lp50
sS'tumblr'
p51
(lp52
sS'strava'
p53
(lp54
sS'fitbit'
p55
(lp56
sS'weibo'
p57
(lp58
sS'pinterest'
p59
(lp60
sS'wikipedia'
p61
(lp62
sS'state'
p63
(lp64
sS'flickr'
p65
(lp66
sS'email'
p67
(lp68
sS'goodreads'
p69
(lp70
sS'jobs'
p71
(lp72
S'Ganolife D.C afiliado independiente\n Bogot, Colombia'
p73
asS'firstname'
p74
(lp75
S'Fernando'
p76
asS'spotify'
p77
(lp78
sS'kickstarter'
p79
(lp80
sS'fb'
p81
(lp82
S'https://www.facebook.com/fernando.serratogonzalez'
p83
asS'behance'
p84
(lp85
sS'soundcloud'
p86
(lp87
sS'github'
p88
(lp89
sS'yelp'
p90
(lp91
sS'country'
p92
(lp93
sS'youtube'
p94
(lp95
sS'websites'
p96
(lp97
sS'bio_text'
p98
S'HOLA A TODOS GRACIAS POR VISITAR MI PAGINA PROFECIONAL.QUIERO COMPARTIR CON USTDES TODOS MIS SUEOS Y METAS QUE QUIERO CUMPLIR. DESEO PODER CONTACTAR CON MUCHAS PERSONAS INTERESANTES QUE LES GUSTEN LOS BUENOS NEGOCIOS COMO GANOLIFE Y SI QUIREN SABER MAS DE ESTA OPORTUNIDAD NO DUDES EN VISITAR MI PAGINA.GRACIAS A TODOS!!!'
p99
s.