(dp0
S'blogger'
p1
(lp2
sS'bio_html'
p3
(lp4
S'Hola mi nombre es Francy Milena Zuluaga'
p5
aS'Hola mi nombre es Francy Milena Zuluaga'
p6
asS'dribbble'
p7
(lp8
sS'city'
p9
(lp10
sS'500px'
p11
(lp12
sS'foursquare'
p13
(lp14
sS'wordpress'
p15
(lp16
sS'location'
p17
(lp18
S'Cartagena, Bolivar, Colombia'
p19
asS'interests'
p20
(lp21
S'me gusta ir a la playa'
p22
aS'a cine'
p23
aS'compartir con mi familia'
p24
aS'ir al gimnasio'
p25
aS'estudiar .'
p26
asS'medium'
p27
(lp28
sS'lastname'
p29
(lp30
S'ZULUAGA'
p31
asS'company'
p32
(lp33
sS'quora'
p34
(lp35
sS'phone'
p36
(lp37
S'3016928548'
p38
asS'etsy'
p39
(lp40
sS'gplus'
p41
(lp42
sS'vimeo'
p43
(lp44
sS'instagram'
p45
(lp46
sS'twitter'
p47
(lp48
sS'vk'
p49
(lp50
sS'vine'
p51
(lp52
sS'linkedin'
p53
(lp54
sS'tumblr'
p55
(lp56
sS'strava'
p57
(lp58
sS'fitbit'
p59
(lp60
sS'weibo'
p61
(lp62
sS'pinterest'
p63
(lp64
sS'wikipedia'
p65
(lp66
sS'state'
p67
(lp68
sS'flickr'
p69
(lp70
sS'email'
p71
(lp72
sS'goodreads'
p73
(lp74
sS'jobs'
p75
(lp76
S'trabajo independiente'
p77
asS'firstname'
p78
(lp79
S'FRANCY'
p80
asS'spotify'
p81
(lp82
sS'kickstarter'
p83
(lp84
sS'fb'
p85
(lp86
S'https://www.facebook.com/app_scoped_user_id/10200472014118707/'
p87
asS'behance'
p88
(lp89
sS'soundcloud'
p90
(lp91
sS'github'
p92
(lp93
sS'yelp'
p94
(lp95
sS'country'
p96
(lp97
sS'youtube'
p98
(lp99
sS'websites'
p100
(lp101
sS'bio_text'
p102
S'Hola mi nombre es Francy Milena Zuluaga'
p103
s.