(dp0
S'blogger'
p1
(lp2
sS'bio_html'
p3
(lp4
S''
p5
ag5
asS'dribbble'
p6
(lp7
sS'city'
p8
(lp9
sS'500px'
p10
(lp11
sS'foursquare'
p12
(lp13
sS'wordpress'
p14
(lp15
sS'location'
p16
(lp17
sS'interests'
p18
(lp19
sS'medium'
p20
(lp21
sS'lastname'
p22
(lp23
S'Serrato'
p24
asS'company'
p25
(lp26
sS'quora'
p27
(lp28
sS'phone'
p29
(lp30
sS'etsy'
p31
(lp32
sS'gplus'
p33
(lp34
sS'vimeo'
p35
(lp36
sS'instagram'
p37
(lp38
sS'twitter'
p39
(lp40
S'http://www.twitter.com/gabsete'
p41
asS'vk'
p42
(lp43
sS'vine'
p44
(lp45
sS'linkedin'
p46
(lp47
S'http://www.linkedin.com/pub/gabriela-serrato/12/590/a7b'
p48
asS'tumblr'
p49
(lp50
sS'strava'
p51
(lp52
sS'fitbit'
p53
(lp54
sS'weibo'
p55
(lp56
sS'pinterest'
p57
(lp58
sS'wikipedia'
p59
(lp60
sS'state'
p61
(lp62
sS'flickr'
p63
(lp64
sS'email'
p65
(lp66
sS'goodreads'
p67
(lp68
sS'jobs'
p69
(lp70
sS'firstname'
p71
(lp72
S'Gabriela'
p73
asS'spotify'
p74
(lp75
sS'kickstarter'
p76
(lp77
sS'fb'
p78
(lp79
sS'behance'
p80
(lp81
S'http://behance.net/gabsete'
p82
asS'soundcloud'
p83
(lp84
sS'github'
p85
(lp86
sS'yelp'
p87
(lp88
sS'country'
p89
(lp90
sS'youtube'
p91
(lp92
sS'websites'
p93
(lp94
sS'bio_text'
p95
g5
s.