(dp0
S'blogger'
p1
(lp2
sS'bio_html'
p3
(lp4
S'The articles written under my profile are on crafts. This area has been my passion during the last fifteen years. My goal is to write about the benefits and the importance of a product made by hand.'
p5
aS'The articles written under my profile are on crafts. This area has been my passion during the last fifteen years. My goal is to write about the benefits and the importance of a product made by hand.'
p6
asS'dribbble'
p7
(lp8
sS'city'
p9
(lp10
sS'500px'
p11
(lp12
sS'foursquare'
p13
(lp14
sS'wordpress'
p15
(lp16
sS'location'
p17
(lp18
sS'interests'
p19
(lp20
S'hand made'
p21
aS'hand maker'
p22
aS'handmade jewelry'
p23
aS'crafts'
p24
aS'craftsman'
p25
aS'handicraft'
p26
aS'craftsmanship'
p27
asS'medium'
p28
(lp29
sS'lastname'
p30
(lp31
S'Zuluaga'
p32
asS'company'
p33
(lp34
sS'quora'
p35
(lp36
sS'phone'
p37
(lp38
sS'etsy'
p39
(lp40
sS'gplus'
p41
(lp42
sS'vimeo'
p43
(lp44
sS'instagram'
p45
(lp46
sS'twitter'
p47
(lp48
S'https://www.twitter.com/Dan_Zuluaga'
p49
asS'vk'
p50
(lp51
sS'vine'
p52
(lp53
sS'linkedin'
p54
(lp55
sS'tumblr'
p56
(lp57
sS'strava'
p58
(lp59
sS'fitbit'
p60
(lp61
sS'weibo'
p62
(lp63
sS'pinterest'
p64
(lp65
sS'wikipedia'
p66
(lp67
sS'state'
p68
(lp69
sS'flickr'
p70
(lp71
sS'email'
p72
(lp73
sS'goodreads'
p74
(lp75
sS'jobs'
p76
(lp77
sS'firstname'
p78
(lp79
S'Dan'
p80
asS'spotify'
p81
(lp82
sS'kickstarter'
p83
(lp84
sS'fb'
p85
(lp86
sS'behance'
p87
(lp88
sS'soundcloud'
p89
(lp90
sS'github'
p91
(lp92
sS'yelp'
p93
(lp94
sS'country'
p95
(lp96
sS'youtube'
p97
(lp98
sS'websites'
p99
(lp100
sS'bio_text'
p101
S'The articles written under my profile are on crafts. This area has been my passion during the last fifteen years. My goal is to write about the benefits and the importance of a product made by hand.'
p102
s.