(dp0
S'blogger'
p1
(lp2
sS'bio_html'
p3
(lp4
S'Experiencia en investigacin, redaccin, reportera y produccin de contenidos informativos.Consecucin de fuentes, contactos y free press.Planificacin de estrategias y rendimiento en equipo.Manejo de nuevas tecnologas, redes sociales, herramientas multimedia y software de edicin de audio y video.Bogot, Colombia.'
p5
aS'Experiencia en investigacin, redaccin, reportera y produccin de contenidos informativos.Consecucin de fuentes, contactos y free press.Planificacin de estrategias y rendimiento en equipo.Manejo de nuevas tecnologas, redes sociales, herramientas multimedia y software de edicin de audio y video.Bogot, Colombia.'
p6
asS'dribbble'
p7
(lp8
sS'city'
p9
(lp10
sS'500px'
p11
(lp12
sS'foursquare'
p13
(lp14
sS'wordpress'
p15
(lp16
sS'location'
p17
(lp18
sS'interests'
p19
(lp20
sS'medium'
p21
(lp22
sS'lastname'
p23
(lp24
S'Serrato'
p25
asS'company'
p26
(lp27
sS'quora'
p28
(lp29
sS'phone'
p30
(lp31
sS'etsy'
p32
(lp33
sS'gplus'
p34
(lp35
sS'vimeo'
p36
(lp37
sS'instagram'
p38
(lp39
sS'twitter'
p40
(lp41
S'https://www.twitter.com/ComdPapito'
p42
asS'vk'
p43
(lp44
sS'vine'
p45
(lp46
sS'linkedin'
p47
(lp48
sS'tumblr'
p49
(lp50
sS'strava'
p51
(lp52
sS'fitbit'
p53
(lp54
sS'weibo'
p55
(lp56
sS'pinterest'
p57
(lp58
sS'wikipedia'
p59
(lp60
sS'state'
p61
(lp62
sS'flickr'
p63
(lp64
sS'email'
p65
(lp66
sS'goodreads'
p67
(lp68
sS'jobs'
p69
(lp70
sS'firstname'
p71
(lp72
S'Jaime Eduardo'
p73
asS'spotify'
p74
(lp75
sS'kickstarter'
p76
(lp77
sS'fb'
p78
(lp79
sS'behance'
p80
(lp81
sS'soundcloud'
p82
(lp83
sS'github'
p84
(lp85
sS'yelp'
p86
(lp87
sS'country'
p88
(lp89
sS'youtube'
p90
(lp91
sS'websites'
p92
(lp93
S'http://linkedin.com/in/jaimeesc'
p94
aS'http://twitter.com/@ijaimesc'
p95
asS'bio_text'
p96
S'Bogot, Colombia.'
p97
s.