(dp0
S'blogger'
p1
(lp2
sS'bio_html'
p3
(lp4
S'soy una persona sencilla con metas e inusual me gusta el deporte escribri y aprender cosas nuevas'
p5
aS'soy una persona sencilla con metas e inusual me gusta el deporte escribri y aprender cosas nuevas'
p6
asS'dribbble'
p7
(lp8
sS'city'
p9
(lp10
sS'500px'
p11
(lp12
sS'foursquare'
p13
(lp14
sS'wordpress'
p15
(lp16
sS'location'
p17
(lp18
S'Bogota Colombia'
p19
asS'interests'
p20
(lp21
S'aprendisaje'
p22
asS'medium'
p23
(lp24
sS'lastname'
p25
(lp26
S'zuluaga galindo'
p27
asS'company'
p28
(lp29
sS'quora'
p30
(lp31
sS'phone'
p32
(lp33
S'1-316-622-4175'
p34
asS'etsy'
p35
(lp36
sS'gplus'
p37
(lp38
sS'vimeo'
p39
(lp40
sS'instagram'
p41
(lp42
sS'twitter'
p43
(lp44
sS'vk'
p45
(lp46
sS'vine'
p47
(lp48
sS'linkedin'
p49
(lp50
sS'tumblr'
p51
(lp52
sS'strava'
p53
(lp54
sS'fitbit'
p55
(lp56
sS'weibo'
p57
(lp58
sS'pinterest'
p59
(lp60
sS'wikipedia'
p61
(lp62
sS'state'
p63
(lp64
sS'flickr'
p65
(lp66
sS'email'
p67
(lp68
sS'goodreads'
p69
(lp70
sS'jobs'
p71
(lp72
S'ninguno'
p73
asS'firstname'
p74
(lp75
S'javier rodrigo'
p76
asS'spotify'
p77
(lp78
sS'kickstarter'
p79
(lp80
sS'fb'
p81
(lp82
S'https://www.facebook.com/rodr160zuluaga'
p83
asS'behance'
p84
(lp85
sS'soundcloud'
p86
(lp87
sS'github'
p88
(lp89
sS'yelp'
p90
(lp91
sS'country'
p92
(lp93
sS'youtube'
p94
(lp95
sS'websites'
p96
(lp97
sS'bio_text'
p98
S'soy una persona sencilla con metas e inusual me gusta el deporte escribri y aprender cosas nuevas'
p99
s.