(dp0
S'blogger'
p1
(lp2
sS'bio_html'
p3
(lp4
S'Juan Fernando Zuluaga C. es un apasionado empresario de la Industria del Conocimiento.Es fundador y Lder de Negocios & Tecnologa de actualicese.com, una red profesional con ms de 280.000 suscriptores. Ha sido emprendedor asociado en uno de los mayores clusters de tecnologa en Colombia, en donde ha incubado proyectos de software y consultora en Integracin Tecnolgica.Adems es docente, conferencista y cuenta con ms de una veintena de proyectos en construccin, todos alrededor de la tecnologa y su interaccin con el ser humano.Escribe sobre mercadeo, emprendimiento y lanza ideas de negocio en jfzuluaga.com. Y tambin se divierte en la red: trina y le pone gatos a sus hijas aqu.Y aqu est su perfil completo.'
p5
aS'Juan Fernando Zuluaga C. es un apasionado empresario de la Industria del Conocimiento.Es fundador y Lder de Negocios & Tecnologa de actualicese.com, una red profesional con ms de 280.000 suscriptores. Ha sido emprendedor asociado en uno de los mayores clusters de tecnologa en Colombia, en donde ha incubado proyectos de software y consultora en Integracin Tecnolgica.Adems es docente, conferencista y cuenta con ms de una veintena de proyectos en construccin, todos alrededor de la tecnologa y su interaccin con el ser humano.Escribe sobre mercadeo, emprendimiento y lanza ideas de negocio en jfzuluaga.com. Y tambin se divierte en la red: trina y le pone gatos a sus hijas aqu.Y aqu est su perfil completo.'
p6
asS'dribbble'
p7
(lp8
sS'city'
p9
(lp10
sS'500px'
p11
(lp12
sS'foursquare'
p13
(lp14
sS'wordpress'
p15
(lp16
S'http://jfzuluaga.com'
p17
asS'location'
p18
(lp19
sS'interests'
p20
(lp21
S'emprendimiento'
p22
aS'marketing'
p23
aS'conferencista'
p24
aS'autor'
p25
aS'blogger'
p26
asS'medium'
p27
(lp28
sS'lastname'
p29
(lp30
S'Zuluaga'
p31
asS'company'
p32
(lp33
sS'quora'
p34
(lp35
sS'phone'
p36
(lp37
sS'etsy'
p38
(lp39
sS'gplus'
p40
(lp41
S'http://plus.google.com/105033298936623990215/'
p42
asS'vimeo'
p43
(lp44
sS'instagram'
p45
(lp46
S'http://instagram.com/jfzuluaga'
p47
asS'twitter'
p48
(lp49
sS'vk'
p50
(lp51
sS'vine'
p52
(lp53
sS'linkedin'
p54
(lp55
S'http://www.linkedin.com/in/jfzuluaga'
p56
asS'tumblr'
p57
(lp58
S'http://jfz.tumblr.com'
p59
asS'strava'
p60
(lp61
sS'fitbit'
p62
(lp63
sS'weibo'
p64
(lp65
sS'pinterest'
p66
(lp67
sS'wikipedia'
p68
(lp69
sS'state'
p70
(lp71
sS'flickr'
p72
(lp73
S'http://www.flickr.com/people/jfzuluaga/'
p74
asS'email'
p75
(lp76
sS'goodreads'
p77
(lp78
sS'jobs'
p79
(lp80
sS'firstname'
p81
(lp82
S'Juan Fernando'
p83
asS'spotify'
p84
(lp85
sS'kickstarter'
p86
(lp87
sS'fb'
p88
(lp89
sS'behance'
p90
(lp91
sS'soundcloud'
p92
(lp93
sS'github'
p94
(lp95
sS'yelp'
p96
(lp97
sS'country'
p98
(lp99
sS'youtube'
p100
(lp101
sS'websites'
p102
(lp103
S'http://jfzuluaga.com'
p104
asS'bio_text'
p105
S'Juan Fernando Zuluaga C. es un apasionado empresario de la Industria del Conocimiento.Es fundador y Lder de Negocios & Tecnologa de actualicese.com, una red profesional con ms de 280.000 suscriptores. Ha sido emprendedor asociado en uno de los mayores clusters de tecnologa en Colombia, en donde ha incubado proyectos de software y consultora en Integracin Tecnolgica.Adems es docente, conferencista y cuenta con ms de una veintena de proyectos en construccin, todos alrededor de la tecnologa y su interaccin con el ser humano.Escribe sobre mercadeo, emprendimiento y lanza ideas de negocio en jfzuluaga.com. Y tambin se divierte en la red: trina y le pone gatos a sus hijas aqu.Y aqu est su perfil completo.'
p106
s.