(dp0
S'blogger'
p1
(lp2
sS'bio_html'
p3
(lp4
S'Es un administrador pblico y administrador de empresas de 42 aos, especialista en Gerencia, Gobierno y Gestin Pblica que se ha destacado por su capacidad y sensibilidad para servir a los habitantes de Villavicencio.Desde muy joven se vio atrado al servicio pblico siendo elegido comunero a los 22 aos y a los 24 laboraba en el Congreso de la Republica.Su dedicacin y compromiso, fueron reconocidos por los villavicenses que lo eligieron concejal de la ciudad en dos periodos constitucionales sucesivos de 1998 hasta 2003A partir de ao 2004 fue convocado a prestar sus servicios en la Gobernacin del Departamento del Meta como Secretario Social y de participacin , miembro de la Junta directiva del comit de vivienda , en repetidas oportunidades fue designado como Gobernador encargado, y a finales de 2005 ejerci como Alcalde encargado de Villavicencio.Juan Guillermo Zuluaga Cardona se caracteriza por su valor y decisin a la hora de enfrentar los problemas y las adversidades.'
p5
aS'Es un administrador pblico y administrador de empresas de 42 aos, especialista en Gerencia, Gobierno y Gestin Pblica que se ha destacado por su capacidad y sensibilidad para servir a los habitantes de Villavicencio.Desde muy joven se vio atrado al servicio pblico siendo elegido comunero a los 22 aos y a los 24 laboraba en el Congreso de la Republica.Su dedicacin y compromiso, fueron reconocidos por los villavicenses que lo eligieron concejal de la ciudad en dos periodos constitucionales sucesivos de 1998 hasta 2003A partir de ao 2004 fue convocado a prestar sus servicios en la Gobernacin del Departamento del Meta como Secretario Social y de participacin , miembro de la Junta directiva del comit de vivienda , en repetidas oportunidades fue designado como Gobernador encargado, y a finales de 2005 ejerci como Alcalde encargado de Villavicencio.Juan Guillermo Zuluaga Cardona se caracteriza por su valor y decisin a la hora de enfrentar los problemas y las adversidades.'
p6
asS'dribbble'
p7
(lp8
sS'city'
p9
(lp10
sS'500px'
p11
(lp12
sS'foursquare'
p13
(lp14
sS'wordpress'
p15
(lp16
sS'location'
p17
(lp18
S'Colombia'
p19
asS'interests'
p20
(lp21
S'Juan Guillermo Zuluaga Cardona'
p22
aS'Alcalde'
p23
aS'Administrador Pblico'
p24
aS'Empresario'
p25
aS'Juan Guillermo Zuluaga'
p26
asS'medium'
p27
(lp28
sS'lastname'
p29
(lp30
S'Zuluaga Cardona'
p31
asS'company'
p32
(lp33
sS'quora'
p34
(lp35
sS'phone'
p36
(lp37
sS'etsy'
p38
(lp39
sS'gplus'
p40
(lp41
sS'vimeo'
p42
(lp43
sS'instagram'
p44
(lp45
sS'twitter'
p46
(lp47
sS'vk'
p48
(lp49
sS'vine'
p50
(lp51
sS'linkedin'
p52
(lp53
sS'tumblr'
p54
(lp55
sS'strava'
p56
(lp57
sS'fitbit'
p58
(lp59
sS'weibo'
p60
(lp61
sS'pinterest'
p62
(lp63
sS'wikipedia'
p64
(lp65
sS'state'
p66
(lp67
sS'flickr'
p68
(lp69
sS'email'
p70
(lp71
sS'goodreads'
p72
(lp73
sS'jobs'
p74
(lp75
sS'firstname'
p76
(lp77
S'Juan guillermo'
p78
asS'spotify'
p79
(lp80
sS'kickstarter'
p81
(lp82
sS'fb'
p83
(lp84
sS'behance'
p85
(lp86
sS'soundcloud'
p87
(lp88
sS'github'
p89
(lp90
sS'yelp'
p91
(lp92
sS'country'
p93
(lp94
sS'youtube'
p95
(lp96
sS'websites'
p97
(lp98
S'https://www.facebook.com/juanguillermo.zuluagacardona'
p99
asS'bio_text'
p100
S'Es un administrador pblico y administrador de empresas de 42 aos, especialista en Gerencia, Gobierno y Gestin Pblica que se ha destacado por su capacidad y sensibilidad para servir a los habitantes de Villavicencio.Desde muy joven se vio atrado al servicio pblico siendo elegido comunero a los 22 aos y a los 24 laboraba en el Congreso de la Republica.Su dedicacin y compromiso, fueron reconocidos por los villavicenses que lo eligieron concejal de la ciudad en dos periodos constitucionales sucesivos de 1998 hasta 2003A partir de ao 2004 fue convocado a prestar sus servicios en la Gobernacin del Departamento del Meta como Secretario Social y de participacin , miembro de la Junta directiva del comit de vivienda , en repetidas oportunidades fue designado como Gobernador encargado, y a finales de 2005 ejerci como Alcalde encargado de Villavicencio.Juan Guillermo Zuluaga Cardona se caracteriza por su valor y decisin a la hora de enfrentar los problemas y las adversidades.'
p101
s.