(dp0
S'blogger'
p1
(lp2
sS'bio_html'
p3
(lp4
S'medellin, colombia'
p5
aS'medellin, colombia'
p6
asS'dribbble'
p7
(lp8
sS'city'
p9
(lp10
sS'500px'
p11
(lp12
sS'foursquare'
p13
(lp14
sS'wordpress'
p15
(lp16
sS'location'
p17
(lp18
sS'interests'
p19
(lp20
S'futbol'
p21
asS'medium'
p22
(lp23
sS'lastname'
p24
(lp25
S'zuluaga'
p26
asS'company'
p27
(lp28
sS'quora'
p29
(lp30
sS'phone'
p31
(lp32
sS'etsy'
p33
(lp34
sS'gplus'
p35
(lp36
sS'vimeo'
p37
(lp38
sS'instagram'
p39
(lp40
sS'twitter'
p41
(lp42
sS'vk'
p43
(lp44
sS'vine'
p45
(lp46
sS'linkedin'
p47
(lp48
sS'tumblr'
p49
(lp50
sS'strava'
p51
(lp52
sS'fitbit'
p53
(lp54
sS'weibo'
p55
(lp56
sS'pinterest'
p57
(lp58
sS'wikipedia'
p59
(lp60
sS'state'
p61
(lp62
sS'flickr'
p63
(lp64
sS'email'
p65
(lp66
sS'goodreads'
p67
(lp68
sS'jobs'
p69
(lp70
sS'firstname'
p71
(lp72
S'juan'
p73
asS'spotify'
p74
(lp75
sS'kickstarter'
p76
(lp77
sS'fb'
p78
(lp79
sS'behance'
p80
(lp81
sS'soundcloud'
p82
(lp83
sS'github'
p84
(lp85
sS'yelp'
p86
(lp87
sS'country'
p88
(lp89
sS'youtube'
p90
(lp91
sS'websites'
p92
(lp93
sS'bio_text'
p94
S'medellin, colombia'
p95
s.