(dp0
S'blogger'
p1
(lp2
sS'bio_html'
p3
(lp4
S'Oficial Piloto del curso No.78 Administrador Aeronutico graduado en el 2005, Piloto primario del equipo T-41 Mescalero, Piloto basico del equipo B-206 Ranger, Copiloto del equipo UH-60, Curso de Seguridad Aerea, Piloto de Operaciones Especiales Equipo UH-60, Curso Comandante de Mision Aerea, Piloto equio AH-60.'
p5
aS'Oficial Piloto del curso No.78 Administrador Aeronutico graduado en el 2005, Piloto primario del equipo T-41 Mescalero, Piloto basico del equipo B-206 Ranger, Copiloto del equipo UH-60, Curso de Seguridad Aerea, Piloto de Operaciones Especiales Equipo UH-60, Curso Comandante de Mision Aerea, Piloto equio AH-60.'
p6
asS'dribbble'
p7
(lp8
sS'city'
p9
(lp10
sS'500px'
p11
(lp12
sS'foursquare'
p13
(lp14
sS'wordpress'
p15
(lp16
sS'location'
p17
(lp18
S'Medellin - Colombia'
p19
asS'interests'
p20
(lp21
S'football'
p22
aS'helicopter'
p23
aS'travel'
p24
asS'medium'
p25
(lp26
sS'lastname'
p27
(lp28
S'zuluaga'
p29
asS'company'
p30
(lp31
sS'quora'
p32
(lp33
sS'phone'
p34
(lp35
sS'etsy'
p36
(lp37
sS'gplus'
p38
(lp39
sS'vimeo'
p40
(lp41
sS'instagram'
p42
(lp43
sS'twitter'
p44
(lp45
sS'vk'
p46
(lp47
sS'vine'
p48
(lp49
sS'linkedin'
p50
(lp51
sS'tumblr'
p52
(lp53
sS'strava'
p54
(lp55
sS'fitbit'
p56
(lp57
sS'weibo'
p58
(lp59
sS'pinterest'
p60
(lp61
sS'wikipedia'
p62
(lp63
sS'state'
p64
(lp65
sS'flickr'
p66
(lp67
sS'email'
p68
(lp69
sS'goodreads'
p70
(lp71
sS'jobs'
p72
(lp73
S'CACOM-5'
p74
asS'firstname'
p75
(lp76
S'jose'
p77
asS'spotify'
p78
(lp79
sS'kickstarter'
p80
(lp81
sS'fb'
p82
(lp83
sS'behance'
p84
(lp85
sS'soundcloud'
p86
(lp87
sS'github'
p88
(lp89
sS'yelp'
p90
(lp91
sS'country'
p92
(lp93
sS'youtube'
p94
(lp95
sS'websites'
p96
(lp97
sS'bio_text'
p98
S'Oficial Piloto del curso No.78 Administrador Aeronutico graduado en el 2005, Piloto primario del equipo T-41 Mescalero, Piloto basico del equipo B-206 Ranger, Copiloto del equipo UH-60, Curso de Seguridad Aerea, Piloto de Operaciones Especiales Equipo UH-60, Curso Comandante de Mision Aerea, Piloto equio AH-60.'
p99
s.