(dp0
S'blogger'
p1
(lp2
sS'bio_html'
p3
(lp4
S"Hey! My name is Jorge. I'm a Fullstack developer living in the sunny Cartagena, Colombia.I'm passionate of what I do. Always eager to learn and practice anything that can make our job as developers better!I gratuaded as a informatic/systems engineer from Universidad Tecnologica de Bolivar in late 2012."
p5
aS"Hey! My name is Jorge. I'm a Fullstack developer living in the sunny Cartagena, Colombia.I'm passionate of what I do. Always eager to learn and practice anything that can make our job as developers better!I gratuaded as a informatic/systems engineer from Universidad Tecnologica de Bolivar in late 2012."
p6
asS'dribbble'
p7
(lp8
sS'city'
p9
(lp10
sS'500px'
p11
(lp12
sS'foursquare'
p13
(lp14
sS'wordpress'
p15
(lp16
sS'location'
p17
(lp18
S'Cartagena, Bolivar, Colombia'
p19
asS'interests'
p20
(lp21
S'Development'
p22
aS'Software'
p23
aS'Web'
p24
aS'front-end'
p25
aS'back-end'
p26
asS'medium'
p27
(lp28
sS'lastname'
p29
(lp30
S'Ramrez Serrato'
p31
asS'company'
p32
(lp33
sS'quora'
p34
(lp35
sS'phone'
p36
(lp37
sS'etsy'
p38
(lp39
sS'gplus'
p40
(lp41
sS'vimeo'
p42
(lp43
sS'instagram'
p44
(lp45
sS'twitter'
p46
(lp47
sS'vk'
p48
(lp49
sS'vine'
p50
(lp51
sS'linkedin'
p52
(lp53
S'https://www.linkedin.com/pub/jorge-ram%C3%ADrez-serrato/8b/649/49b'
p54
asS'tumblr'
p55
(lp56
sS'strava'
p57
(lp58
sS'fitbit'
p59
(lp60
sS'weibo'
p61
(lp62
sS'pinterest'
p63
(lp64
sS'wikipedia'
p65
(lp66
sS'state'
p67
(lp68
sS'flickr'
p69
(lp70
sS'email'
p71
(lp72
sS'goodreads'
p73
(lp74
sS'jobs'
p75
(lp76
sS'firstname'
p77
(lp78
S'Jorge'
p79
asS'spotify'
p80
(lp81
sS'kickstarter'
p82
(lp83
sS'fb'
p84
(lp85
sS'behance'
p86
(lp87
sS'soundcloud'
p88
(lp89
sS'github'
p90
(lp91
sS'yelp'
p92
(lp93
sS'country'
p94
(lp95
sS'youtube'
p96
(lp97
sS'websites'
p98
(lp99
sS'bio_text'
p100
S"Hey! My name is Jorge. I'm a Fullstack developer living in the sunny Cartagena, Colombia.I'm passionate of what I do. Always eager to learn and practice anything that can make our job as developers better!I gratuaded as a informatic/systems engineer from Universidad Tecnologica de Bolivar in late 2012."
p101
s.