(dp0
S'blogger'
p1
(lp2
S'http://jimon74.blogspot.com'
p3
asS'bio_html'
p4
(lp5
S''
p6
ag6
asS'dribbble'
p7
(lp8
sS'city'
p9
(lp10
sS'500px'
p11
(lp12
sS'foursquare'
p13
(lp14
sS'wordpress'
p15
(lp16
sS'location'
p17
(lp18
sS'interests'
p19
(lp20
sS'medium'
p21
(lp22
sS'lastname'
p23
(lp24
S'Serratos'
p25
asS'company'
p26
(lp27
sS'quora'
p28
(lp29
sS'phone'
p30
(lp31
sS'etsy'
p32
(lp33
sS'gplus'
p34
(lp35
S'http://plus.google.com/103366384782812405479/'
p36
asS'vimeo'
p37
(lp38
sS'instagram'
p39
(lp40
S'http://instagram.com/jimon74'
p41
asS'twitter'
p42
(lp43
S'https://www.twitter.com/jimon74'
p44
asS'vk'
p45
(lp46
sS'vine'
p47
(lp48
sS'linkedin'
p49
(lp50
S'http://www.linkedin.com/in/jim74'
p51
asS'tumblr'
p52
(lp53
sS'strava'
p54
(lp55
sS'fitbit'
p56
(lp57
sS'weibo'
p58
(lp59
sS'pinterest'
p60
(lp61
sS'wikipedia'
p62
(lp63
sS'state'
p64
(lp65
sS'flickr'
p66
(lp67
sS'email'
p68
(lp69
sS'goodreads'
p70
(lp71
sS'jobs'
p72
(lp73
sS'firstname'
p74
(lp75
S'Jim'
p76
asS'spotify'
p77
(lp78
sS'kickstarter'
p79
(lp80
sS'fb'
p81
(lp82
S'http://www.facebook.com/MrShooter'
p83
asS'behance'
p84
(lp85
sS'soundcloud'
p86
(lp87
sS'github'
p88
(lp89
sS'yelp'
p90
(lp91
sS'country'
p92
(lp93
sS'youtube'
p94
(lp95
sS'websites'
p96
(lp97
sS'bio_text'
p98
g6
s.