(dp0
S'blogger'
p1
(lp2
sS'bio_html'
p3
(lp4
S'Colombia, Manizales. Desarrollador Web.'
p5
aS'Colombia, Manizales. Desarrollador Web.'
p6
asS'dribbble'
p7
(lp8
sS'city'
p9
(lp10
sS'500px'
p11
(lp12
sS'foursquare'
p13
(lp14
sS'wordpress'
p15
(lp16
sS'location'
p17
(lp18
S'Manizales, Colombia'
p19
asS'interests'
p20
(lp21
sS'medium'
p22
(lp23
sS'lastname'
p24
(lp25
S'Zuluaga Henao'
p26
asS'company'
p27
(lp28
sS'quora'
p29
(lp30
sS'phone'
p31
(lp32
sS'etsy'
p33
(lp34
sS'gplus'
p35
(lp36
sS'vimeo'
p37
(lp38
sS'instagram'
p39
(lp40
sS'twitter'
p41
(lp42
S'https://www.twitter.com/Juankzu'
p43
asS'vk'
p44
(lp45
sS'vine'
p46
(lp47
sS'linkedin'
p48
(lp49
S'http://www.linkedin.com/in/juankzuluaga'
p50
asS'tumblr'
p51
(lp52
sS'strava'
p53
(lp54
sS'fitbit'
p55
(lp56
sS'weibo'
p57
(lp58
sS'pinterest'
p59
(lp60
sS'wikipedia'
p61
(lp62
sS'state'
p63
(lp64
sS'flickr'
p65
(lp66
sS'email'
p67
(lp68
sS'goodreads'
p69
(lp70
sS'jobs'
p71
(lp72
sS'firstname'
p73
(lp74
S'Juan Camilo'
p75
asS'spotify'
p76
(lp77
sS'kickstarter'
p78
(lp79
sS'fb'
p80
(lp81
S'https://www.facebook.com/juankzuhe'
p82
asS'behance'
p83
(lp84
sS'soundcloud'
p85
(lp86
sS'github'
p87
(lp88
sS'yelp'
p89
(lp90
sS'country'
p91
(lp92
sS'youtube'
p93
(lp94
sS'websites'
p95
(lp96
sS'bio_text'
p97
S'Colombia, Manizales. Desarrollador Web.'
p98
s.