(dp0
S'blogger'
p1
(lp2
S'http://mediafutbol.blogspot.com'
p3
asS'bio_html'
p4
(lp5
S'Comunicador Audiovisual. Interesado en las TICS.'
p6
aS'Comunicador Audiovisual. Interesado en las TICS.'
p7
asS'dribbble'
p8
(lp9
sS'city'
p10
(lp11
sS'500px'
p12
(lp13
sS'foursquare'
p14
(lp15
sS'wordpress'
p16
(lp17
sS'location'
p18
(lp19
sS'interests'
p20
(lp21
S'Comunicacin'
p22
aS'Marketing Digital'
p23
aS'Web 2.0'
p24
aS'e-learning'
p25
aS'Contenidos'
p26
aS'Audiovisual'
p27
aS'Ftbol'
p28
aS'Redes Sociales'
p29
aS'blog'
p30
asS'medium'
p31
(lp32
sS'lastname'
p33
(lp34
S'Zuluaga'
p35
asS'company'
p36
(lp37
sS'quora'
p38
(lp39
sS'phone'
p40
(lp41
sS'etsy'
p42
(lp43
sS'gplus'
p44
(lp45
S'http://plus.google.com/108942987662137328047/'
p46
asS'vimeo'
p47
(lp48
sS'instagram'
p49
(lp50
S'http://instagram.com/juan_zuluaga'
p51
asS'twitter'
p52
(lp53
sS'vk'
p54
(lp55
sS'vine'
p56
(lp57
sS'linkedin'
p58
(lp59
S'http://www.linkedin.com/pub/juan-sebasti%C3%A1n-zuluaga/36/b79/805'
p60
asS'tumblr'
p61
(lp62
sS'strava'
p63
(lp64
sS'fitbit'
p65
(lp66
sS'weibo'
p67
(lp68
sS'pinterest'
p69
(lp70
sS'wikipedia'
p71
(lp72
sS'state'
p73
(lp74
sS'flickr'
p75
(lp76
sS'email'
p77
(lp78
sS'goodreads'
p79
(lp80
sS'jobs'
p81
(lp82
sS'firstname'
p83
(lp84
S'Juan'
p85
asS'spotify'
p86
(lp87
sS'kickstarter'
p88
(lp89
sS'fb'
p90
(lp91
sS'behance'
p92
(lp93
sS'soundcloud'
p94
(lp95
sS'github'
p96
(lp97
sS'yelp'
p98
(lp99
sS'country'
p100
(lp101
sS'youtube'
p102
(lp103
sS'websites'
p104
(lp105
S'https://twitter.com/#!/Juan_Zuluaga'
p106
asS'bio_text'
p107
S'Comunicador Audiovisual. Interesado en las TICS.'
p108
s.