(dp0
S'blogger'
p1
(lp2
sS'bio_html'
p3
(lp4
S'Juan Guillermo Zuluaga Cardona es un administrador pblico y administrador de empresas de 42 aos, especialista en Gerencia, Gobierno y Gestin Pblica que se ha destacado por su capacidad y sensibilidad para servir a los habitantes de Villavicencio.Desde muy joven se vio atrado al servicio pblico siendo elegido comunero a los 22 aos y a los 24 laboraba en el Congreso de la Republica.Su dedicacin y compromiso, fueron reconocidos por los villavicenses que lo eligieron concejal de la ciudad en dos periodos constitucionales sucesivos de 1998 hasta 2003A partir de ao 2004 fue convocado a prestar sus servicios en la Gobernacin del Departamento del Meta como Secretario Social y de participacin , miembro de la Junta directiva del comit de vivienda , en repetidas oportunidades fue designado como Gobernador encargado, y a finales de 2005 ejerci como Alcalde encargado de Villavicencio.Juan Guillermo Zuluaga Cardona se caracteriza por su valor y decisin a la hora de enfrentar los problemas y las adversidades.'
p5
aS'Juan Guillermo Zuluaga Cardona es un administrador pblico y administrador de empresas de 42 aos, especialista en Gerencia, Gobierno y Gestin Pblica que se ha destacado por su capacidad y sensibilidad para servir a los habitantes de Villavicencio.Desde muy joven se vio atrado al servicio pblico siendo elegido comunero a los 22 aos y a los 24 laboraba en el Congreso de la Republica.Su dedicacin y compromiso, fueron reconocidos por los villavicenses que lo eligieron concejal de la ciudad en dos periodos constitucionales sucesivos de 1998 hasta 2003A partir de ao 2004 fue convocado a prestar sus servicios en la Gobernacin del Departamento del Meta como Secretario Social y de participacin , miembro de la Junta directiva del comit de vivienda , en repetidas oportunidades fue designado como Gobernador encargado, y a finales de 2005 ejerci como Alcalde encargado de Villavicencio.Juan Guillermo Zuluaga Cardona se caracteriza por su valor y decisin a la hora de enfrentar los problemas y las adversidades.'
p6
asS'dribbble'
p7
(lp8
sS'city'
p9
(lp10
sS'500px'
p11
(lp12
sS'foursquare'
p13
(lp14
sS'wordpress'
p15
(lp16
sS'location'
p17
(lp18
sS'interests'
p19
(lp20
S'Juan Guillermo Zuluaga Cardona'
p21
aS'Juan Guillermo Zuluaga'
p22
aS'Juan Guillermo Zuluaga Alcalde'
p23
aS'Villavicencio'
p24
aS'Zuluaga Cardona'
p25
asS'medium'
p26
(lp27
sS'lastname'
p28
(lp29
S'Zuluaga Cardona'
p30
asS'company'
p31
(lp32
sS'quora'
p33
(lp34
sS'phone'
p35
(lp36
sS'etsy'
p37
(lp38
sS'gplus'
p39
(lp40
sS'vimeo'
p41
(lp42
sS'instagram'
p43
(lp44
sS'twitter'
p45
(lp46
sS'vk'
p47
(lp48
sS'vine'
p49
(lp50
sS'linkedin'
p51
(lp52
sS'tumblr'
p53
(lp54
sS'strava'
p55
(lp56
sS'fitbit'
p57
(lp58
sS'weibo'
p59
(lp60
sS'pinterest'
p61
(lp62
sS'wikipedia'
p63
(lp64
sS'state'
p65
(lp66
sS'flickr'
p67
(lp68
sS'email'
p69
(lp70
sS'goodreads'
p71
(lp72
sS'jobs'
p73
(lp74
sS'firstname'
p75
(lp76
S'Juan Guillermo'
p77
asS'spotify'
p78
(lp79
sS'kickstarter'
p80
(lp81
sS'fb'
p82
(lp83
sS'behance'
p84
(lp85
sS'soundcloud'
p86
(lp87
sS'github'
p88
(lp89
sS'yelp'
p90
(lp91
sS'country'
p92
(lp93
sS'youtube'
p94
(lp95
sS'websites'
p96
(lp97
sS'bio_text'
p98
S'Juan Guillermo Zuluaga Cardona es un administrador pblico y administrador de empresas de 42 aos, especialista en Gerencia, Gobierno y Gestin Pblica que se ha destacado por su capacidad y sensibilidad para servir a los habitantes de Villavicencio.Desde muy joven se vio atrado al servicio pblico siendo elegido comunero a los 22 aos y a los 24 laboraba en el Congreso de la Republica.Su dedicacin y compromiso, fueron reconocidos por los villavicenses que lo eligieron concejal de la ciudad en dos periodos constitucionales sucesivos de 1998 hasta 2003A partir de ao 2004 fue convocado a prestar sus servicios en la Gobernacin del Departamento del Meta como Secretario Social y de participacin , miembro de la Junta directiva del comit de vivienda , en repetidas oportunidades fue designado como Gobernador encargado, y a finales de 2005 ejerci como Alcalde encargado de Villavicencio.Juan Guillermo Zuluaga Cardona se caracteriza por su valor y decisin a la hora de enfrentar los problemas y las adversidades.'
p99
s.