(dp0
S'blogger'
p1
(lp2
S'http://juankzi92.blogspot.com'
p3
asS'bio_html'
p4
(lp5
S'Hola,soy estudiante de administracion de empresas en la universidad tecnologica de bolivar; soy una persona amigable y centrada en sus objetivos y de paso un amante del deporte en especial de el futbol pero pienso que las actividades fisicas ayudan a la salud y llevan a el cuerpo a cierto estado de satisfaccion mental y personal; abierto a cualquier tipo de informacion que me pueda servir en la vida y que sea de interes.'
p6
aS'Hola,soy estudiante de administracion de empresas en la universidad tecnologica de bolivar; soy una persona amigable y centrada en sus objetivos y de paso un amante del deporte en especial de el futbol pero pienso que las actividades fisicas ayudan a la salud y llevan a el cuerpo a cierto estado de satisfaccion mental y personal; abierto a cualquier tipo de informacion que me pueda servir en la vida y que sea de interes.'
p7
asS'dribbble'
p8
(lp9
sS'city'
p10
(lp11
sS'500px'
p12
(lp13
sS'foursquare'
p14
(lp15
sS'wordpress'
p16
(lp17
S'http://juankzi92.wordpress.com'
p18
asS'location'
p19
(lp20
sS'interests'
p21
(lp22
sS'medium'
p23
(lp24
sS'lastname'
p25
(lp26
S'Zuluaga'
p27
asS'company'
p28
(lp29
sS'quora'
p30
(lp31
sS'phone'
p32
(lp33
sS'etsy'
p34
(lp35
sS'gplus'
p36
(lp37
sS'vimeo'
p38
(lp39
sS'instagram'
p40
(lp41
S'http://instagram.com/juankz09'
p42
asS'twitter'
p43
(lp44
S'https://www.twitter.com/juankzi'
p45
asS'vk'
p46
(lp47
sS'vine'
p48
(lp49
sS'linkedin'
p50
(lp51
sS'tumblr'
p52
(lp53
sS'strava'
p54
(lp55
sS'fitbit'
p56
(lp57
sS'weibo'
p58
(lp59
sS'pinterest'
p60
(lp61
sS'wikipedia'
p62
(lp63
sS'state'
p64
(lp65
sS'flickr'
p66
(lp67
sS'email'
p68
(lp69
sS'goodreads'
p70
(lp71
sS'jobs'
p72
(lp73
sS'firstname'
p74
(lp75
S'Juan Camilo'
p76
asS'spotify'
p77
(lp78
sS'kickstarter'
p79
(lp80
sS'fb'
p81
(lp82
S'http://www.facebook.com/juank.zuluaga.942'
p83
asS'behance'
p84
(lp85
sS'soundcloud'
p86
(lp87
sS'github'
p88
(lp89
sS'yelp'
p90
(lp91
sS'country'
p92
(lp93
sS'youtube'
p94
(lp95
S'http://www.youtube.com/user/WT4ZWCN4-4IYXgxh2oZqPQ'
p96
asS'websites'
p97
(lp98
S'http://www.youtube.com/watch?v=GgazDWkAdOE'
p99
asS'bio_text'
p100
S'Hola,soy estudiante de administracion de empresas en la universidad tecnologica de bolivar; soy una persona amigable y centrada en sus objetivos y de paso un amante del deporte en especial de el futbol pero pienso que las actividades fisicas ayudan a la salud y llevan a el cuerpo a cierto estado de satisfaccion mental y personal; abierto a cualquier tipo de informacion que me pueda servir en la vida y que sea de interes.'
p101
s.