(dp0
S'blogger'
p1
(lp2
sS'bio_html'
p3
(lp4
S'Ingeniera de sistemas, amante de la musica, la politica y la #Tecnologia, actualmente desarrollo aplicaciones para android y iphone.'
p5
aS'Ingeniera de sistemas, amante de la musica, la politica y la #Tecnologia, actualmente desarrollo aplicaciones para android y iphone.'
p6
asS'dribbble'
p7
(lp8
sS'city'
p9
(lp10
sS'500px'
p11
(lp12
sS'foursquare'
p13
(lp14
sS'wordpress'
p15
(lp16
sS'location'
p17
(lp18
sS'interests'
p19
(lp20
sS'medium'
p21
(lp22
sS'lastname'
p23
(lp24
S'Zuluaga'
p25
asS'company'
p26
(lp27
sS'quora'
p28
(lp29
sS'phone'
p30
(lp31
sS'etsy'
p32
(lp33
sS'gplus'
p34
(lp35
sS'vimeo'
p36
(lp37
sS'instagram'
p38
(lp39
sS'twitter'
p40
(lp41
S'https://www.twitter.com/CarlaZuluagaA'
p42
asS'vk'
p43
(lp44
sS'vine'
p45
(lp46
sS'linkedin'
p47
(lp48
S'http://www.linkedin.com/pub/karla-zuluaga/32/283/b19'
p49
asS'tumblr'
p50
(lp51
sS'strava'
p52
(lp53
sS'fitbit'
p54
(lp55
sS'weibo'
p56
(lp57
sS'pinterest'
p58
(lp59
sS'wikipedia'
p60
(lp61
sS'state'
p62
(lp63
sS'flickr'
p64
(lp65
sS'email'
p66
(lp67
sS'goodreads'
p68
(lp69
sS'jobs'
p70
(lp71
sS'firstname'
p72
(lp73
S'Karla'
p74
asS'spotify'
p75
(lp76
sS'kickstarter'
p77
(lp78
sS'fb'
p79
(lp80
sS'behance'
p81
(lp82
sS'soundcloud'
p83
(lp84
sS'github'
p85
(lp86
sS'yelp'
p87
(lp88
sS'country'
p89
(lp90
sS'youtube'
p91
(lp92
sS'websites'
p93
(lp94
sS'bio_text'
p95
S'Ingeniera de sistemas, amante de la musica, la politica y la #Tecnologia, actualmente desarrollo aplicaciones para android y iphone.'
p96
s.