(dp0
S'blogger'
p1
(lp2
sS'bio_html'
p3
(lp4
S'Comunicadora Social - Periodista, apasionada por el Mercadeo, el Community Management y la Comunicacin Corporativa.'
p5
aS'Comunicadora Social - Periodista, apasionada por el Mercadeo, el Community Management y la Comunicacin Corporativa.'
p6
asS'dribbble'
p7
(lp8
sS'city'
p9
(lp10
sS'500px'
p11
(lp12
sS'foursquare'
p13
(lp14
sS'wordpress'
p15
(lp16
sS'location'
p17
(lp18
S''
p19
asS'interests'
p20
(lp21
S'Mercadeo'
p22
aS'Marketing Digital'
p23
aS'Comunicacin Corporativa'
p24
aS'Social Media'
p25
aS'Idiomas'
p26
asS'medium'
p27
(lp28
sS'lastname'
p29
(lp30
S'Mara Zuluaga Borda'
p31
asS'company'
p32
(lp33
sS'quora'
p34
(lp35
sS'phone'
p36
(lp37
sS'etsy'
p38
(lp39
sS'gplus'
p40
(lp41
sS'vimeo'
p42
(lp43
sS'instagram'
p44
(lp45
sS'twitter'
p46
(lp47
sS'vk'
p48
(lp49
sS'vine'
p50
(lp51
sS'linkedin'
p52
(lp53
sS'tumblr'
p54
(lp55
sS'strava'
p56
(lp57
sS'fitbit'
p58
(lp59
sS'weibo'
p60
(lp61
sS'pinterest'
p62
(lp63
sS'wikipedia'
p64
(lp65
sS'state'
p66
(lp67
sS'flickr'
p68
(lp69
sS'email'
p70
(lp71
sS'goodreads'
p72
(lp73
sS'jobs'
p74
(lp75
sS'firstname'
p76
(lp77
S'Laura'
p78
asS'spotify'
p79
(lp80
sS'kickstarter'
p81
(lp82
sS'fb'
p83
(lp84
sS'behance'
p85
(lp86
sS'soundcloud'
p87
(lp88
sS'github'
p89
(lp90
sS'yelp'
p91
(lp92
sS'country'
p93
(lp94
sS'youtube'
p95
(lp96
sS'websites'
p97
(lp98
sS'bio_text'
p99
S'Comunicadora Social - Periodista, apasionada por el Mercadeo, el Community Management y la Comunicacin Corporativa.'
p100
s.