(dp0
S'blogger'
p1
(lp2
sS'bio_html'
p3
(lp4
S''
p5
ag5
asS'dribbble'
p6
(lp7
sS'city'
p8
(lp9
sS'500px'
p10
(lp11
sS'foursquare'
p12
(lp13
sS'wordpress'
p14
(lp15
sS'location'
p16
(lp17
sS'interests'
p18
(lp19
S'landscape'
p20
aS'city'
p21
aS'art'
p22
aS'dance'
p23
aS'music'
p24
aS'composition'
p25
aS'photography'
p26
aS'research'
p27
asS'medium'
p28
(lp29
sS'lastname'
p30
(lp31
S'Zuluaga'
p32
asS'company'
p33
(lp34
sS'quora'
p35
(lp36
sS'phone'
p37
(lp38
sS'etsy'
p39
(lp40
sS'gplus'
p41
(lp42
sS'vimeo'
p43
(lp44
sS'instagram'
p45
(lp46
S'https://instagram.com/lauzuluf0911'
p47
asS'twitter'
p48
(lp49
S'https://www.twitter.com/lauzuluf'
p50
asS'vk'
p51
(lp52
sS'vine'
p53
(lp54
sS'linkedin'
p55
(lp56
S'https://www.linkedin.com/in/lauzuluf'
p57
asS'tumblr'
p58
(lp59
S'http://lauzuluf0.tumblr.com'
p60
asS'strava'
p61
(lp62
sS'fitbit'
p63
(lp64
sS'weibo'
p65
(lp66
sS'pinterest'
p67
(lp68
S'http://pinterest.com/lauzuluf'
p69
asS'wikipedia'
p70
(lp71
sS'state'
p72
(lp73
sS'flickr'
p74
(lp75
sS'email'
p76
(lp77
sS'goodreads'
p78
(lp79
sS'jobs'
p80
(lp81
S'Architecture\n Urban Design'
p82
asS'firstname'
p83
(lp84
S'Laura Elena'
p85
asS'spotify'
p86
(lp87
sS'kickstarter'
p88
(lp89
sS'fb'
p90
(lp91
sS'behance'
p92
(lp93
S'http://behance.net/lauzuluf'
p94
asS'soundcloud'
p95
(lp96
sS'github'
p97
(lp98
sS'yelp'
p99
(lp100
sS'country'
p101
(lp102
sS'youtube'
p103
(lp104
sS'websites'
p105
(lp106
S'http://8tracks.com/#lauzuluf0'
p107
aS'http://www.pinterest.com/lauzuluf/'
p108
asS'bio_text'
p109
g5
s.