(dp0
S'blogger'
p1
(lp2
sS'bio_html'
p3
(lp4
S'hola soy LINA MARCELA ZULUAGA vivo en la ciudad de bogota. soy tecnica en salud ocupacional del istituto INCAP, actualmente me encuentro realizando mis estudios profesionlaes en la universidad minuto de dios en la sede de rafael uribe, trabao en una fundacion que prinda ayuda a pacientes adultos con cancer, desempeo el cargo atencion al pacientes. y megusta mucho ir a cine, dormir y salir a bailar.'
p5
aS'hola soy LINA MARCELA ZULUAGA vivo en la ciudad de bogota. soy tecnica en salud ocupacional del istituto INCAP, actualmente me encuentro realizando mis estudios profesionlaes en la universidad minuto de dios en la sede de rafael uribe, trabao en una fundacion que prinda ayuda a pacientes adultos con cancer, desempeo el cargo atencion al pacientes. y megusta mucho ir a cine, dormir y salir a bailar.'
p6
asS'dribbble'
p7
(lp8
sS'city'
p9
(lp10
sS'500px'
p11
(lp12
sS'foursquare'
p13
(lp14
sS'wordpress'
p15
(lp16
sS'location'
p17
(lp18
S'Bogota d.c'
p19
asS'interests'
p20
(lp21
sS'medium'
p22
(lp23
sS'lastname'
p24
(lp25
S'ZULUAGA MORELOS'
p26
asS'company'
p27
(lp28
sS'quora'
p29
(lp30
sS'phone'
p31
(lp32
sS'etsy'
p33
(lp34
sS'gplus'
p35
(lp36
sS'vimeo'
p37
(lp38
sS'instagram'
p39
(lp40
sS'twitter'
p41
(lp42
sS'vk'
p43
(lp44
sS'vine'
p45
(lp46
sS'linkedin'
p47
(lp48
sS'tumblr'
p49
(lp50
sS'strava'
p51
(lp52
sS'fitbit'
p53
(lp54
sS'weibo'
p55
(lp56
sS'pinterest'
p57
(lp58
sS'wikipedia'
p59
(lp60
sS'state'
p61
(lp62
sS'flickr'
p63
(lp64
sS'email'
p65
(lp66
sS'goodreads'
p67
(lp68
sS'jobs'
p69
(lp70
S'FUNDACION SIMMON'
p71
asS'firstname'
p72
(lp73
S'LINA MARCELA'
p74
asS'spotify'
p75
(lp76
sS'kickstarter'
p77
(lp78
sS'fb'
p79
(lp80
sS'behance'
p81
(lp82
sS'soundcloud'
p83
(lp84
sS'github'
p85
(lp86
sS'yelp'
p87
(lp88
sS'country'
p89
(lp90
sS'youtube'
p91
(lp92
sS'websites'
p93
(lp94
sS'bio_text'
p95
S'hola soy LINA MARCELA ZULUAGA vivo en la ciudad de bogota. soy tecnica en salud ocupacional del istituto INCAP, actualmente me encuentro realizando mis estudios profesionlaes en la universidad minuto de dios en la sede de rafael uribe, trabao en una fundacion que prinda ayuda a pacientes adultos con cancer, desempeo el cargo atencion al pacientes. y megusta mucho ir a cine, dormir y salir a bailar.'
p96
s.