(dp0
S'blogger'
p1
(lp2
sS'bio_html'
p3
(lp4
S'http://www.youtube.com/watch?v=WpuNDXIosRw <3'
p5
aS'http://www.youtube.com/watch?v=WpuNDXIosRw <3'
p6
asS'dribbble'
p7
(lp8
sS'city'
p9
(lp10
sS'500px'
p11
(lp12
sS'foursquare'
p13
(lp14
sS'wordpress'
p15
(lp16
sS'location'
p17
(lp18
S'Envigado'
p19
aS'Medelln, Antioquia'
p20
aS'Envigado'
p21
aS'Medelln, Antioquia'
p22
asS'interests'
p23
(lp24
sS'medium'
p25
(lp26
sS'lastname'
p27
(lp28
S'Zuluaga'
p29
asS'company'
p30
(lp31
sS'quora'
p32
(lp33
sS'phone'
p34
(lp35
sS'etsy'
p36
(lp37
sS'gplus'
p38
(lp39
sS'vimeo'
p40
(lp41
sS'instagram'
p42
(lp43
sS'twitter'
p44
(lp45
sS'vk'
p46
(lp47
sS'vine'
p48
(lp49
sS'linkedin'
p50
(lp51
sS'tumblr'
p52
(lp53
sS'strava'
p54
(lp55
sS'fitbit'
p56
(lp57
sS'weibo'
p58
(lp59
sS'pinterest'
p60
(lp61
sS'wikipedia'
p62
(lp63
sS'state'
p64
(lp65
sS'flickr'
p66
(lp67
sS'email'
p68
(lp69
sS'goodreads'
p70
(lp71
sS'jobs'
p72
(lp73
sS'firstname'
p74
(lp75
S'Manu'
p76
asS'spotify'
p77
(lp78
sS'kickstarter'
p79
(lp80
sS'fb'
p81
(lp82
sS'behance'
p83
(lp84
sS'soundcloud'
p85
(lp86
sS'github'
p87
(lp88
sS'yelp'
p89
(lp90
sS'country'
p91
(lp92
sS'youtube'
p93
(lp94
sS'websites'
p95
(lp96
sS'bio_text'
p97
S'http://www.youtube.com/watch?v=WpuNDXIosRw <3'
p98
s.