(dp0
S'blogger'
p1
(lp2
sS'bio_html'
p3
(lp4
S'Hola a todo el mundo, espero encuentren en este espacio lo que estn buscando.'
p5
aS'Hola a todo el mundo, espero encuentren en este espacio lo que estn buscando.'
p6
asS'dribbble'
p7
(lp8
sS'city'
p9
(lp10
sS'500px'
p11
(lp12
sS'foursquare'
p13
(lp14
sS'wordpress'
p15
(lp16
sS'location'
p17
(lp18
S'Ciudad Jardin- Bogota'
p19
asS'interests'
p20
(lp21
sS'medium'
p22
(lp23
sS'lastname'
p24
(lp25
S'Zuluaga Parra'
p26
asS'company'
p27
(lp28
sS'quora'
p29
(lp30
sS'phone'
p31
(lp32
S'313 850 09 87'
p33
asS'etsy'
p34
(lp35
sS'gplus'
p36
(lp37
sS'vimeo'
p38
(lp39
sS'instagram'
p40
(lp41
sS'twitter'
p42
(lp43
sS'vk'
p44
(lp45
sS'vine'
p46
(lp47
sS'linkedin'
p48
(lp49
sS'tumblr'
p50
(lp51
sS'strava'
p52
(lp53
sS'fitbit'
p54
(lp55
sS'weibo'
p56
(lp57
sS'pinterest'
p58
(lp59
sS'wikipedia'
p60
(lp61
sS'state'
p62
(lp63
sS'flickr'
p64
(lp65
sS'email'
p66
(lp67
sS'goodreads'
p68
(lp69
sS'jobs'
p70
(lp71
sS'firstname'
p72
(lp73
S'Mauricio'
p74
asS'spotify'
p75
(lp76
sS'kickstarter'
p77
(lp78
sS'fb'
p79
(lp80
sS'behance'
p81
(lp82
sS'soundcloud'
p83
(lp84
sS'github'
p85
(lp86
sS'yelp'
p87
(lp88
sS'country'
p89
(lp90
sS'youtube'
p91
(lp92
sS'websites'
p93
(lp94
sS'bio_text'
p95
S'Hola a todo el mundo, espero encuentren en este espacio lo que estn buscando.'
p96
s.