(dp0
S'blogger'
p1
(lp2
sS'bio_html'
p3
(lp4
S'SOY MARLON ZULUAGATENGO 23 AOS, ESTUDIO EN UNIVERSIDAD UNIMINUTO,SOY UNA PERSONA MUY SENCILLA CON GANAS DE COLABORARLE A LOS DEMAS, RENPONSABLE, ME GUSTA ANDAR EN MOTO Y JUGAR MICROFUTBOL EN MIS TIEMPOS LIBRESTRABAJO DE DIGITADOR DE HISTORIAS OCUPACIONALES'
p5
aS'SOY MARLON ZULUAGATENGO 23 AOS, ESTUDIO EN UNIVERSIDAD UNIMINUTO,SOY UNA PERSONA MUY SENCILLA CON GANAS DE COLABORARLE A LOS DEMAS, RENPONSABLE, ME GUSTA ANDAR EN MOTO Y JUGAR MICROFUTBOL EN MIS TIEMPOS LIBRESTRABAJO DE DIGITADOR DE HISTORIAS OCUPACIONALES'
p6
asS'dribbble'
p7
(lp8
sS'city'
p9
(lp10
sS'500px'
p11
(lp12
sS'foursquare'
p13
(lp14
sS'wordpress'
p15
(lp16
sS'location'
p17
(lp18
S'Bogot, Colombia'
p19
asS'interests'
p20
(lp21
S'VER PELICULAS'
p22
aS'ANDAR EN MOTO'
p23
aS'MICROFUTBOL'
p24
asS'medium'
p25
(lp26
sS'lastname'
p27
(lp28
S'Zuluaga'
p29
asS'company'
p30
(lp31
sS'quora'
p32
(lp33
sS'phone'
p34
(lp35
sS'etsy'
p36
(lp37
sS'gplus'
p38
(lp39
sS'vimeo'
p40
(lp41
sS'instagram'
p42
(lp43
sS'twitter'
p44
(lp45
sS'vk'
p46
(lp47
sS'vine'
p48
(lp49
sS'linkedin'
p50
(lp51
sS'tumblr'
p52
(lp53
sS'strava'
p54
(lp55
sS'fitbit'
p56
(lp57
sS'weibo'
p58
(lp59
sS'pinterest'
p60
(lp61
sS'wikipedia'
p62
(lp63
sS'state'
p64
(lp65
sS'flickr'
p66
(lp67
sS'email'
p68
(lp69
sS'goodreads'
p70
(lp71
sS'jobs'
p72
(lp73
S'DIGITADOR'
p74
asS'firstname'
p75
(lp76
S'Marlon'
p77
asS'spotify'
p78
(lp79
sS'kickstarter'
p80
(lp81
sS'fb'
p82
(lp83
S'https://www.facebook.com/marlonz91'
p84
asS'behance'
p85
(lp86
sS'soundcloud'
p87
(lp88
sS'github'
p89
(lp90
sS'yelp'
p91
(lp92
sS'country'
p93
(lp94
sS'youtube'
p95
(lp96
sS'websites'
p97
(lp98
sS'bio_text'
p99
S'SOY MARLON ZULUAGATENGO 23 AOS, ESTUDIO EN UNIVERSIDAD UNIMINUTO,SOY UNA PERSONA MUY SENCILLA CON GANAS DE COLABORARLE A LOS DEMAS, RENPONSABLE, ME GUSTA ANDAR EN MOTO Y JUGAR MICROFUTBOL EN MIS TIEMPOS LIBRESTRABAJO DE DIGITADOR DE HISTORIAS OCUPACIONALES'
p100
s.