(dp0
S'blogger'
p1
(lp2
sS'bio_html'
p3
(lp4
S'Mucho gusto, mi nombre es Miguel Antonio Ruiz Serrato, soy de la ciudad de Cali, tengo 46 aos y vivo junto a mi familia que la conforman mis 3 hijos, mi esposa y mis mascotas. Me gustan mucho los animales y convivir con mi familia. Tengo muchas ganas de estudiar esta Tecnologa porque es algo que servira para mi vida.Muchas gracias'
p5
aS'Mucho gusto, mi nombre es Miguel Antonio Ruiz Serrato, soy de la ciudad de Cali, tengo 46 aos y vivo junto a mi familia que la conforman mis 3 hijos, mi esposa y mis mascotas. Me gustan mucho los animales y convivir con mi familia. Tengo muchas ganas de estudiar esta Tecnologa porque es algo que servira para mi vida.Muchas gracias'
p6
asS'dribbble'
p7
(lp8
sS'city'
p9
(lp10
sS'500px'
p11
(lp12
sS'foursquare'
p13
(lp14
sS'wordpress'
p15
(lp16
sS'location'
p17
(lp18
S'Cali, Colombia.'
p19
asS'interests'
p20
(lp21
S'pasear'
p22
aS'animales'
p23
aS'familia'
p24
aS'estudiar'
p25
asS'medium'
p26
(lp27
sS'lastname'
p28
(lp29
S'Ruiz Serrato'
p30
asS'company'
p31
(lp32
sS'quora'
p33
(lp34
sS'phone'
p35
(lp36
sS'etsy'
p37
(lp38
sS'gplus'
p39
(lp40
sS'vimeo'
p41
(lp42
sS'instagram'
p43
(lp44
sS'twitter'
p45
(lp46
sS'vk'
p47
(lp48
sS'vine'
p49
(lp50
sS'linkedin'
p51
(lp52
sS'tumblr'
p53
(lp54
sS'strava'
p55
(lp56
sS'fitbit'
p57
(lp58
sS'weibo'
p59
(lp60
sS'pinterest'
p61
(lp62
sS'wikipedia'
p63
(lp64
sS'state'
p65
(lp66
sS'flickr'
p67
(lp68
sS'email'
p69
(lp70
sS'goodreads'
p71
(lp72
sS'jobs'
p73
(lp74
S'Analista'
p75
asS'firstname'
p76
(lp77
S'Miguel Antonio'
p78
asS'spotify'
p79
(lp80
sS'kickstarter'
p81
(lp82
sS'fb'
p83
(lp84
sS'behance'
p85
(lp86
sS'soundcloud'
p87
(lp88
sS'github'
p89
(lp90
sS'yelp'
p91
(lp92
sS'country'
p93
(lp94
sS'youtube'
p95
(lp96
sS'websites'
p97
(lp98
sS'bio_text'
p99
S'Mucho gusto, mi nombre es Miguel Antonio Ruiz Serrato, soy de la ciudad de Cali, tengo 46 aos y vivo junto a mi familia que la conforman mis 3 hijos, mi esposa y mis mascotas. Me gustan mucho los animales y convivir con mi familia. Tengo muchas ganas de estudiar esta Tecnologa porque es algo que servira para mi vida.Muchas gracias'
p100
s.