(dp0
S'blogger'
p1
(lp2
sS'bio_html'
p3
(lp4
S'Tengo 27 aos, naci en la ciudad de Cali el 25 de Noviembre de 1985. En la actualidad vivo en la Ciudad de Pereira. me gradu de auxiliar de enfermeria en el ao 2006 del instituto INEC, trabaje durante 5 aos Diagnostico oftalmologico.Estudio enferemria en la fundacion universitaria del area andina, cursando septimo semestre.'
p5
aS'Tengo 27 aos, naci en la ciudad de Cali el 25 de Noviembre de 1985. En la actualidad vivo en la Ciudad de Pereira. me gradu de auxiliar de enfermeria en el ao 2006 del instituto INEC, trabaje durante 5 aos Diagnostico oftalmologico.Estudio enferemria en la fundacion universitaria del area andina, cursando septimo semestre.'
p6
asS'dribbble'
p7
(lp8
sS'city'
p9
(lp10
sS'500px'
p11
(lp12
sS'foursquare'
p13
(lp14
sS'wordpress'
p15
(lp16
sS'location'
p17
(lp18
S'Pereira, Risaralda.'
p19
asS'interests'
p20
(lp21
sS'medium'
p22
(lp23
sS'lastname'
p24
(lp25
S'Parra Zuluaga'
p26
asS'company'
p27
(lp28
sS'quora'
p29
(lp30
sS'phone'
p31
(lp32
sS'etsy'
p33
(lp34
sS'gplus'
p35
(lp36
sS'vimeo'
p37
(lp38
sS'instagram'
p39
(lp40
sS'twitter'
p41
(lp42
sS'vk'
p43
(lp44
sS'vine'
p45
(lp46
sS'linkedin'
p47
(lp48
sS'tumblr'
p49
(lp50
sS'strava'
p51
(lp52
sS'fitbit'
p53
(lp54
sS'weibo'
p55
(lp56
sS'pinterest'
p57
(lp58
sS'wikipedia'
p59
(lp60
sS'state'
p61
(lp62
sS'flickr'
p63
(lp64
sS'email'
p65
(lp66
sS'goodreads'
p67
(lp68
sS'jobs'
p69
(lp70
sS'firstname'
p71
(lp72
S'Mileidy'
p73
asS'spotify'
p74
(lp75
sS'kickstarter'
p76
(lp77
sS'fb'
p78
(lp79
S'https://www.facebook.com/mileidy.parrazuluaga'
p80
asS'behance'
p81
(lp82
sS'soundcloud'
p83
(lp84
sS'github'
p85
(lp86
sS'yelp'
p87
(lp88
sS'country'
p89
(lp90
sS'youtube'
p91
(lp92
sS'websites'
p93
(lp94
sS'bio_text'
p95
S'Tengo 27 aos, naci en la ciudad de Cali el 25 de Noviembre de 1985. En la actualidad vivo en la Ciudad de Pereira. me gradu de auxiliar de enfermeria en el ao 2006 del instituto INEC, trabaje durante 5 aos Diagnostico oftalmologico.Estudio enferemria en la fundacion universitaria del area andina, cursando septimo semestre.'
p96
s.