(dp0
S'blogger'
p1
(lp2
sS'bio_html'
p3
(lp4
S'Soy colombiano y vivo en Medelln, la cuidad de la eterna primavera Naci En Esta hermosa ciudad.Mi formacion academica es: Bachiller academico.Trabajo en PepsiCo Alimentos, Donde me he desempeado Como auxiliar de almacen.Actualmente mi funcion es el despacho y recibo de Producto.'
p5
aS'Soy colombiano y vivo en Medelln, la cuidad de la eterna primavera Naci En Esta hermosa ciudad.Mi formacion academica es: Bachiller academico.Trabajo en PepsiCo Alimentos, Donde me he desempeado Como auxiliar de almacen.Actualmente mi funcion es el despacho y recibo de Producto.'
p6
asS'dribbble'
p7
(lp8
sS'city'
p9
(lp10
sS'500px'
p11
(lp12
sS'foursquare'
p13
(lp14
sS'wordpress'
p15
(lp16
sS'location'
p17
(lp18
S'Medelln, Antioquia'
p19
asS'interests'
p20
(lp21
S'Futbol el cine la politica'
p22
aS'y la tecnologia'
p23
asS'medium'
p24
(lp25
sS'lastname'
p26
(lp27
S'Quintero Zuluaga'
p28
asS'company'
p29
(lp30
sS'quora'
p31
(lp32
sS'phone'
p33
(lp34
sS'etsy'
p35
(lp36
sS'gplus'
p37
(lp38
sS'vimeo'
p39
(lp40
sS'instagram'
p41
(lp42
sS'twitter'
p43
(lp44
sS'vk'
p45
(lp46
sS'vine'
p47
(lp48
sS'linkedin'
p49
(lp50
sS'tumblr'
p51
(lp52
sS'strava'
p53
(lp54
sS'fitbit'
p55
(lp56
sS'weibo'
p57
(lp58
sS'pinterest'
p59
(lp60
sS'wikipedia'
p61
(lp62
sS'state'
p63
(lp64
sS'flickr'
p65
(lp66
sS'email'
p67
(lp68
sS'goodreads'
p69
(lp70
sS'jobs'
p71
(lp72
S'pepsico alimentos'
p73
asS'firstname'
p74
(lp75
S'Milton Dario'
p76
asS'spotify'
p77
(lp78
sS'kickstarter'
p79
(lp80
sS'fb'
p81
(lp82
S'https://www.facebook.com/miltondario.quinterozuluaga'
p83
asS'behance'
p84
(lp85
sS'soundcloud'
p86
(lp87
sS'github'
p88
(lp89
sS'yelp'
p90
(lp91
sS'country'
p92
(lp93
sS'youtube'
p94
(lp95
sS'websites'
p96
(lp97
S'http://prezi.com/o1o_ol7izzqf/?utm_campaign=share&utm_medium=copy&rc=ex0share'
p98
aS'http://prezi.com/o1o_ol7izzqf/?utm_campaign=share&utm_medium=copy&rc=ex0share'
p99
aS'https://es.scribd.com/doc/249088245/ACTIVIDAD-3'
p100
aS'https://magic.piktochart.com/editor/piktochart/3773885#'
p101
asS'bio_text'
p102
S'Soy colombiano y vivo en Medelln, la cuidad de la eterna primavera Naci En Esta hermosa ciudad.Mi formacion academica es: Bachiller academico.Trabajo en PepsiCo Alimentos, Donde me he desempeado Como auxiliar de almacen.Actualmente mi funcion es el despacho y recibo de Producto.'
p103
s.