(dp0
S'blogger'
p1
(lp2
sS'bio_html'
p3
(lp4
S"Hello there, my name is Jane. I'm a happily married and if you spend more time with me you'll find out that I'm currently living in Singapore and my homeland is Philippines.Things I love: spending time with my hubby, photography, designing website, stuff toys, eating and chatting with friends."
p5
aS"Hello there, my name is Jane. I'm a happily married and if you spend more time with me you'll find out that I'm currently living in Singapore and my homeland is Philippines.Things I love: spending time with my hubby, photography, designing website, stuff toys, eating and chatting with friends."
p6
asS'dribbble'
p7
(lp8
sS'city'
p9
(lp10
sS'500px'
p11
(lp12
sS'foursquare'
p13
(lp14
S'http://www.foursquare.com/user/10907341'
p15
asS'wordpress'
p16
(lp17
S'http://janespathinlife.wordpress.com'
p18
asS'location'
p19
(lp20
sS'interests'
p21
(lp22
S'web programmer'
p23
aS'website administrator'
p24
aS'web developer'
p25
asS'medium'
p26
(lp27
sS'lastname'
p28
(lp29
S'Macawile'
p30
asS'company'
p31
(lp32
sS'quora'
p33
(lp34
sS'phone'
p35
(lp36
sS'etsy'
p37
(lp38
sS'gplus'
p39
(lp40
S'http://plus.google.com/117988572525437453450/'
p41
asS'vimeo'
p42
(lp43
sS'instagram'
p44
(lp45
S'http://instagram.com/patmj'
p46
asS'twitter'
p47
(lp48
S'https://www.twitter.com/mjnobio'
p49
asS'vk'
p50
(lp51
sS'vine'
p52
(lp53
sS'linkedin'
p54
(lp55
S'http://www.linkedin.com/pub/mary-jane-macawile/49/157/b98'
p56
asS'tumblr'
p57
(lp58
S'http://mjpat.tumblr.com'
p59
asS'strava'
p60
(lp61
sS'fitbit'
p62
(lp63
sS'weibo'
p64
(lp65
sS'pinterest'
p66
(lp67
sS'wikipedia'
p68
(lp69
sS'state'
p70
(lp71
sS'flickr'
p72
(lp73
S'http://www.flickr.com/people/91282822@N07/'
p74
asS'email'
p75
(lp76
sS'goodreads'
p77
(lp78
sS'jobs'
p79
(lp80
S'Web Programmer'
p81
asS'firstname'
p82
(lp83
S'Mary Jane Nobio -'
p84
asS'spotify'
p85
(lp86
sS'kickstarter'
p87
(lp88
sS'fb'
p89
(lp90
S'http://www.facebook.com/maryjanemacawile'
p91
asS'behance'
p92
(lp93
sS'soundcloud'
p94
(lp95
sS'github'
p96
(lp97
sS'yelp'
p98
(lp99
sS'country'
p100
(lp101
sS'youtube'
p102
(lp103
S'http://www.youtube.com/user/maryjanenobio'
p104
asS'websites'
p105
(lp106
sS'bio_text'
p107
S"Hello there, my name is Jane. I'm a happily married and if you spend more time with me you'll find out that I'm currently living in Singapore and my homeland is Philippines.Things I love: spending time with my hubby, photography, designing website, stuff toys, eating and chatting with friends."
p108
s.