(dp0
S'blogger'
p1
(lp2
sS'bio_html'
p3
(lp4
S'Yo s lo que quiero encontrar, cuando logre hacerlo... les cuento.'
p5
aS'Yo s lo que quiero encontrar, cuando logre hacerlo... les cuento.'
p6
asS'dribbble'
p7
(lp8
sS'city'
p9
(lp10
sS'500px'
p11
(lp12
sS'foursquare'
p13
(lp14
sS'wordpress'
p15
(lp16
sS'location'
p17
(lp18
sS'interests'
p19
(lp20
S'Art Direction'
p21
aS'Advertising'
p22
aS'Cinema'
p23
aS'Music'
p24
asS'medium'
p25
(lp26
sS'lastname'
p27
(lp28
S'Serrato'
p29
asS'company'
p30
(lp31
sS'quora'
p32
(lp33
sS'phone'
p34
(lp35
sS'etsy'
p36
(lp37
sS'gplus'
p38
(lp39
S'http://plus.google.com/117338985028929083778/'
p40
asS'vimeo'
p41
(lp42
sS'instagram'
p43
(lp44
sS'twitter'
p45
(lp46
S'https://www.twitter.com/mr_mikirisin'
p47
asS'vk'
p48
(lp49
sS'vine'
p50
(lp51
sS'linkedin'
p52
(lp53
S'http://www.linkedin.com/pub/miguel-serrato/4b/991/82b'
p54
asS'tumblr'
p55
(lp56
sS'strava'
p57
(lp58
sS'fitbit'
p59
(lp60
sS'weibo'
p61
(lp62
sS'pinterest'
p63
(lp64
sS'wikipedia'
p65
(lp66
sS'state'
p67
(lp68
sS'flickr'
p69
(lp70
sS'email'
p71
(lp72
sS'goodreads'
p73
(lp74
sS'jobs'
p75
(lp76
sS'firstname'
p77
(lp78
S'Miguel'
p79
asS'spotify'
p80
(lp81
sS'kickstarter'
p82
(lp83
sS'fb'
p84
(lp85
sS'behance'
p86
(lp87
S'http://behance.net/mr_mikirisin'
p88
asS'soundcloud'
p89
(lp90
sS'github'
p91
(lp92
sS'yelp'
p93
(lp94
sS'country'
p95
(lp96
sS'youtube'
p97
(lp98
S'http://www.youtube.com/user/mikhail0804'
p99
asS'websites'
p100
(lp101
sS'bio_text'
p102
S'Yo s lo que quiero encontrar, cuando logre hacerlo... les cuento.'
p103
s.