(dp0
S'blogger'
p1
(lp2
sS'bio_html'
p3
(lp4
S''
p5
ag5
asS'dribbble'
p6
(lp7
sS'city'
p8
(lp9
sS'500px'
p10
(lp11
sS'foursquare'
p12
(lp13
sS'wordpress'
p14
(lp15
S'http://garotacliche.wordpress.com'
p16
asS'location'
p17
(lp18
sS'interests'
p19
(lp20
sS'medium'
p21
(lp22
sS'lastname'
p23
(lp24
S'serrato'
p25
asS'company'
p26
(lp27
sS'quora'
p28
(lp29
sS'phone'
p30
(lp31
sS'etsy'
p32
(lp33
sS'gplus'
p34
(lp35
S'http://plus.google.com/114053138396961952633/'
p36
asS'vimeo'
p37
(lp38
sS'instagram'
p39
(lp40
sS'twitter'
p41
(lp42
sS'vk'
p43
(lp44
sS'vine'
p45
(lp46
sS'linkedin'
p47
(lp48
sS'tumblr'
p49
(lp50
sS'strava'
p51
(lp52
sS'fitbit'
p53
(lp54
sS'weibo'
p55
(lp56
sS'pinterest'
p57
(lp58
sS'wikipedia'
p59
(lp60
sS'state'
p61
(lp62
sS'flickr'
p63
(lp64
sS'email'
p65
(lp66
sS'goodreads'
p67
(lp68
sS'jobs'
p69
(lp70
sS'firstname'
p71
(lp72
S'mylla'
p73
asS'spotify'
p74
(lp75
sS'kickstarter'
p76
(lp77
sS'fb'
p78
(lp79
sS'behance'
p80
(lp81
sS'soundcloud'
p82
(lp83
sS'github'
p84
(lp85
sS'yelp'
p86
(lp87
sS'country'
p88
(lp89
sS'youtube'
p90
(lp91
S'http://www.youtube.com/user/myllaserrato'
p92
asS'websites'
p93
(lp94
S'http://facebook.com/pages/Mylla-Serrato/'
p95
asS'bio_text'
p96
g5
s.