(dp0
S'blogger'
p1
(lp2
sS'bio_html'
p3
(lp4
S"I'm Communicator for Development and Social Change, I've learned that the best things in life take time and that the nicest things in the world are free.Comunicadora para el Desarrollo y Cambio Social. Mi experiencia me ha enseado que las mejores cosas de la vida toman tiempo y que las mejores cosas del mundo son gratis."
p5
aS"I'm Communicator for Development and Social Change, I've learned that the best things in life take time and that the nicest things in the world are free.Comunicadora para el Desarrollo y Cambio Social. Mi experiencia me ha enseado que las mejores cosas de la vida toman tiempo y que las mejores cosas del mundo son gratis."
p6
asS'dribbble'
p7
(lp8
sS'city'
p9
(lp10
sS'500px'
p11
(lp12
sS'foursquare'
p13
(lp14
S'http://www.foursquare.com/user/19030261'
p15
asS'wordpress'
p16
(lp17
sS'location'
p18
(lp19
sS'interests'
p20
(lp21
S'RSE'
p22
aS'Desarrollo Social'
p23
aS'Comunicacin para el Desarroll'
p24
aS'Mxico'
p25
aS'Colombia'
p26
aS'social marketing'
p27
aS'journalism'
p28
aS'photographs'
p29
aS'social networks'
p30
aS'consultoria'
p31
asS'medium'
p32
(lp33
sS'lastname'
p34
(lp35
S'Sierra Zuluaga'
p36
asS'company'
p37
(lp38
sS'quora'
p39
(lp40
sS'phone'
p41
(lp42
sS'etsy'
p43
(lp44
sS'gplus'
p45
(lp46
sS'vimeo'
p47
(lp48
sS'instagram'
p49
(lp50
sS'twitter'
p51
(lp52
S'https://www.twitter.com/Tangaly'
p53
asS'vk'
p54
(lp55
sS'vine'
p56
(lp57
sS'linkedin'
p58
(lp59
S'http://www.linkedin.com/pub/nataly-sierra-zuluaga/18/3a9/758'
p60
asS'tumblr'
p61
(lp62
sS'strava'
p63
(lp64
sS'fitbit'
p65
(lp66
sS'weibo'
p67
(lp68
sS'pinterest'
p69
(lp70
sS'wikipedia'
p71
(lp72
sS'state'
p73
(lp74
sS'flickr'
p75
(lp76
sS'email'
p77
(lp78
sS'goodreads'
p79
(lp80
sS'jobs'
p81
(lp82
sS'firstname'
p83
(lp84
S'Nataly'
p85
asS'spotify'
p86
(lp87
sS'kickstarter'
p88
(lp89
sS'fb'
p90
(lp91
S'http://www.facebook.com/natasierra'
p92
asS'behance'
p93
(lp94
sS'soundcloud'
p95
(lp96
sS'github'
p97
(lp98
sS'yelp'
p99
(lp100
sS'country'
p101
(lp102
sS'youtube'
p103
(lp104
sS'websites'
p105
(lp106
sS'bio_text'
p107
S"I'm Communicator for Development and Social Change, I've learned that the best things in life take time and that the nicest things in the world are free.Comunicadora para el Desarrollo y Cambio Social. Mi experiencia me ha enseado que las mejores cosas de la vida toman tiempo y que las mejores cosas del mundo son gratis."
p108
s.