(dp0
S'blogger'
p1
(lp2
sS'bio_html'
p3
(lp4
S''
p5
ag5
asS'dribbble'
p6
(lp7
sS'city'
p8
(lp9
sS'500px'
p10
(lp11
sS'foursquare'
p12
(lp13
sS'wordpress'
p14
(lp15
sS'location'
p16
(lp17
sS'interests'
p18
(lp19
sS'medium'
p20
(lp21
sS'lastname'
p22
(lp23
S'zuluaga'
p24
asS'company'
p25
(lp26
sS'quora'
p27
(lp28
sS'phone'
p29
(lp30
S'3212079836'
p31
asS'etsy'
p32
(lp33
sS'gplus'
p34
(lp35
sS'vimeo'
p36
(lp37
sS'instagram'
p38
(lp39
sS'twitter'
p40
(lp41
S'https://www.twitter.com/thedarknessman'
p42
asS'vk'
p43
(lp44
sS'vine'
p45
(lp46
sS'linkedin'
p47
(lp48
sS'tumblr'
p49
(lp50
sS'strava'
p51
(lp52
sS'fitbit'
p53
(lp54
sS'weibo'
p55
(lp56
sS'pinterest'
p57
(lp58
sS'wikipedia'
p59
(lp60
sS'state'
p61
(lp62
sS'flickr'
p63
(lp64
sS'email'
p65
(lp66
sS'goodreads'
p67
(lp68
sS'jobs'
p69
(lp70
sS'firstname'
p71
(lp72
S'oliver'
p73
asS'spotify'
p74
(lp75
sS'kickstarter'
p76
(lp77
sS'fb'
p78
(lp79
sS'behance'
p80
(lp81
sS'soundcloud'
p82
(lp83
sS'github'
p84
(lp85
sS'yelp'
p86
(lp87
sS'country'
p88
(lp89
sS'youtube'
p90
(lp91
sS'websites'
p92
(lp93
sS'bio_text'
p94
g5
s.