(dp0
S'blogger'
p1
(lp2
sS'bio_html'
p3
(lp4
S'Profesional en Diseo Industrial, creativa e innovadora con inters en trabajar en mercadeo digital. He participado proactivamente en campaas de marketing online, desarrollando planes de pauta en google adwords, email marketing y Facebook ads.Trabaj en desarrollo de piezas grficas dirigidas al marketing de contenido, con mi experiencia como diseadora industrial.Alta proactividadad para solucionar problemas y buscar informacin, persona con iniciativa, alta capacidad de trabajo bajo presin y en equipo, excelentes relaciones personales y comunicacin.'
p5
aS'Profesional en Diseo Industrial, creativa e innovadora con inters en trabajar en mercadeo digital. He participado proactivamente en campaas de marketing online, desarrollando planes de pauta en google adwords, email marketing y Facebook ads.Trabaj en desarrollo de piezas grficas dirigidas al marketing de contenido, con mi experiencia como diseadora industrial.Alta proactividadad para solucionar problemas y buscar informacin, persona con iniciativa, alta capacidad de trabajo bajo presin y en equipo, excelentes relaciones personales y comunicacin.'
p6
asS'dribbble'
p7
(lp8
sS'city'
p9
(lp10
sS'500px'
p11
(lp12
sS'foursquare'
p13
(lp14
sS'wordpress'
p15
(lp16
sS'location'
p17
(lp18
S'Cali, Colombia'
p19
asS'interests'
p20
(lp21
S'marketing digital'
p22
aS'social media marketing'
p23
aS'socialmediaconsultant'
p24
aS'design'
p25
aS'innovation'
p26
asS'medium'
p27
(lp28
sS'lastname'
p29
(lp30
S'Alvarez Zuluaga'
p31
asS'company'
p32
(lp33
sS'quora'
p34
(lp35
sS'phone'
p36
(lp37
sS'etsy'
p38
(lp39
sS'gplus'
p40
(lp41
sS'vimeo'
p42
(lp43
sS'instagram'
p44
(lp45
S'http://instagram.com/paoalvarezz'
p46
asS'twitter'
p47
(lp48
S'https://www.twitter.com/paoalvarez'
p49
asS'vk'
p50
(lp51
sS'vine'
p52
(lp53
sS'linkedin'
p54
(lp55
S'http://www.linkedin.com/pub/paola-alvarez-zuluaga/74/658/5a5'
p56
asS'tumblr'
p57
(lp58
sS'strava'
p59
(lp60
sS'fitbit'
p61
(lp62
sS'weibo'
p63
(lp64
sS'pinterest'
p65
(lp66
sS'wikipedia'
p67
(lp68
sS'state'
p69
(lp70
sS'flickr'
p71
(lp72
sS'email'
p73
(lp74
sS'goodreads'
p75
(lp76
sS'jobs'
p77
(lp78
S'Community Manager\n Content Creator'
p79
asS'firstname'
p80
(lp81
S'Paola'
p82
asS'spotify'
p83
(lp84
sS'kickstarter'
p85
(lp86
sS'fb'
p87
(lp88
S'https://www.facebook.com/paola.alvarez.9081'
p89
asS'behance'
p90
(lp91
sS'soundcloud'
p92
(lp93
sS'github'
p94
(lp95
sS'yelp'
p96
(lp97
sS'country'
p98
(lp99
sS'youtube'
p100
(lp101
sS'websites'
p102
(lp103
sS'bio_text'
p104
S'Profesional en Diseo Industrial, creativa e innovadora con inters en trabajar en mercadeo digital. He participado proactivamente en campaas de marketing online, desarrollando planes de pauta en google adwords, email marketing y Facebook ads.Trabaj en desarrollo de piezas grficas dirigidas al marketing de contenido, con mi experiencia como diseadora industrial.Alta proactividadad para solucionar problemas y buscar informacin, persona con iniciativa, alta capacidad de trabajo bajo presin y en equipo, excelentes relaciones personales y comunicacin.'
p105
s.