(dp0
S'blogger'
p1
(lp2
sS'bio_html'
p3
(lp4
S'Patrick Zuluaga has more than 30 years experience in marketing and business development roles with Australian and international companies.Patrick is Director of PMZ Marketing, a consultancy focused on Small and Medium Enterprises to help you succeed in business with better marketing results.His career commenced in sales and business development with multi-national companies operating in Asia, the Pacific region and Australia. He has managed many marketing organisations in a number of industries and corporations.Patrick specialises in helping clients achieve business success with better marketing results!You can reach Patrick on 0403 436 889 or email at mailto:patrick@pmzmarketing.com.au or visit the web presence at http://www.pmzmarketing.com.au'
p5
aS'Patrick Zuluaga has more than 30 years experience in marketing and business development roles with Australian and international companies.Patrick is Director of PMZ Marketing, a consultancy focused on Small and Medium Enterprises to help you succeed in business with better marketing results.His career commenced in sales and business development with multi-national companies operating in Asia, the Pacific region and Australia. He has managed many marketing organisations in a number of industries and corporations.Patrick specialises in helping clients achieve business success with better marketing results!You can reach Patrick on 0403 436 889 or email at mailto:patrick@pmzmarketing.com.au or visit the web presence at http://www.pmzmarketing.com.au'
p6
asS'dribbble'
p7
(lp8
sS'city'
p9
(lp10
sS'500px'
p11
(lp12
sS'foursquare'
p13
(lp14
sS'wordpress'
p15
(lp16
sS'location'
p17
(lp18
S'Australia'
p19
asS'interests'
p20
(lp21
S'marketing'
p22
aS'business'
p23
aS'photography'
p24
aS'cycling'
p25
aS'genealogy'
p26
asS'medium'
p27
(lp28
sS'lastname'
p29
(lp30
S'Zuluaga'
p31
asS'company'
p32
(lp33
sS'quora'
p34
(lp35
sS'phone'
p36
(lp37
S'1-040-343-6889'
p38
asS'etsy'
p39
(lp40
sS'gplus'
p41
(lp42
sS'vimeo'
p43
(lp44
sS'instagram'
p45
(lp46
sS'twitter'
p47
(lp48
S'http://www.twitter.com/pmzmarketing'
p49
asS'vk'
p50
(lp51
sS'vine'
p52
(lp53
sS'linkedin'
p54
(lp55
sS'tumblr'
p56
(lp57
sS'strava'
p58
(lp59
sS'fitbit'
p60
(lp61
sS'weibo'
p62
(lp63
sS'pinterest'
p64
(lp65
sS'wikipedia'
p66
(lp67
sS'state'
p68
(lp69
sS'flickr'
p70
(lp71
sS'email'
p72
(lp73
S'patrick@pmzmarketing.com.au'
p74
asS'goodreads'
p75
(lp76
sS'jobs'
p77
(lp78
S'0403436889'
p79
asS'firstname'
p80
(lp81
S'Patrick'
p82
asS'spotify'
p83
(lp84
sS'kickstarter'
p85
(lp86
sS'fb'
p87
(lp88
sS'behance'
p89
(lp90
sS'soundcloud'
p91
(lp92
sS'github'
p93
(lp94
sS'yelp'
p95
(lp96
sS'country'
p97
(lp98
sS'youtube'
p99
(lp100
sS'websites'
p101
(lp102
S'https://www.facebook.com/patrick.zuluaga'
p103
aS'http://au.linkedin.com/in/patrickzuluagapmzmarketing/'
p104
aS'https://twitter.com/pmzmarketing'
p105
aS'https://vimeo.com/pmzmarketing'
p106
aS'http://www.pmzmarketing.com.au'
p107
asS'bio_text'
p108
S'Patrick Zuluaga has more than 30 years experience in marketing and business development roles with Australian and international companies.Patrick is Director of PMZ Marketing, a consultancy focused on Small and Medium Enterprises to help you succeed in business with better marketing results.His career commenced in sales and business development with multi-national companies operating in Asia, the Pacific region and Australia. He has managed many marketing organisations in a number of industries and corporations.Patrick specialises in helping clients achieve business success with better marketing results!You can reach Patrick on 0403 436 889 or email at mailto:patrick@pmzmarketing.com.au or visit the web presence at http://www.pmzmarketing.com.au'
p109
s.