(dp0
S'blogger'
p1
(lp2
sS'bio_html'
p3
(lp4
S'...el dueo del circo.'
p5
aS'...el dueo del circo.'
p6
asS'dribbble'
p7
(lp8
sS'city'
p9
(lp10
sS'500px'
p11
(lp12
sS'foursquare'
p13
(lp14
sS'wordpress'
p15
(lp16
sS'location'
p17
(lp18
S'Mrida, Yucatan'
p19
aS'Frankfurt Lichtenberg, Brandenburg, Germany'
p20
asS'interests'
p21
(lp22
S'audio'
p23
aS'video'
p24
aS'sfx'
p25
aS'tv'
p26
aS'radio'
p27
aS'djset'
p28
asS'medium'
p29
(lp30
sS'lastname'
p31
(lp32
S'Serratos'
p33
asS'company'
p34
(lp35
sS'quora'
p36
(lp37
sS'phone'
p38
(lp39
sS'etsy'
p40
(lp41
sS'gplus'
p42
(lp43
S'https://plus.google.com/116590481636004843689/'
p44
asS'vimeo'
p45
(lp46
sS'instagram'
p47
(lp48
S'http://instagram.com/dvjrams'
p49
asS'twitter'
p50
(lp51
S'https://www.twitter.com/ramonserratos'
p52
asS'vk'
p53
(lp54
sS'vine'
p55
(lp56
sS'linkedin'
p57
(lp58
S'http://www.linkedin.com/pub/ramon-serratos-rams/11/b92/619'
p59
asS'tumblr'
p60
(lp61
S'http://ramonserratos.tumblr.com'
p62
asS'strava'
p63
(lp64
sS'fitbit'
p65
(lp66
sS'weibo'
p67
(lp68
sS'pinterest'
p69
(lp70
sS'wikipedia'
p71
(lp72
sS'state'
p73
(lp74
sS'flickr'
p75
(lp76
sS'email'
p77
(lp78
sS'goodreads'
p79
(lp80
sS'jobs'
p81
(lp82
S'GRUPO SIPSE\n Skypark Records\n SERRATOS design - creativity & communications\n HANGAR SONICO'
p83
asS'firstname'
p84
(lp85
S'Ramn'
p86
asS'spotify'
p87
(lp88
sS'kickstarter'
p89
(lp90
sS'fb'
p91
(lp92
sS'behance'
p93
(lp94
sS'soundcloud'
p95
(lp96
sS'github'
p97
(lp98
sS'yelp'
p99
(lp100
sS'country'
p101
(lp102
sS'youtube'
p103
(lp104
S'http://www.youtube.com/channel/UCT5usNHFI5zZONX67qdn4_Q'
p105
asS'websites'
p106
(lp107
S'http://ramonserratos.wix.com/ramonserratos'
p108
aS'http://facebook.com/ramonserratos'
p109
aS'http://www.wix.com/ramonserratos/rams'
p110
asS'bio_text'
p111
S'...el dueo del circo.'
p112
s.