(dp0
S'blogger'
p1
(lp2
sS'bio_html'
p3
(lp4
S'Experience in New Media & PoliticsCandidate for Masters Degree in Government (CSUS)BA in Government & History (CSUS)AA in Humanities (SJDC)AA in Liberal Arts (SJDC)'
p5
aS'Experience in New Media & PoliticsCandidate for Masters Degree in Government (CSUS)BA in Government & History (CSUS)AA in Humanities (SJDC)AA in Liberal Arts (SJDC)'
p6
asS'dribbble'
p7
(lp8
sS'city'
p9
(lp10
sS'500px'
p11
(lp12
sS'foursquare'
p13
(lp14
sS'wordpress'
p15
(lp16
sS'location'
p17
(lp18
S'Sacramento, Ca'
p19
asS'interests'
p20
(lp21
S'Politics'
p22
aS'Music'
p23
aS'New Media'
p24
aS'Political Science'
p25
aS'History'
p26
aS'Social Media'
p27
aS'Travel'
p28
aS'Reading'
p29
aS'Cats'
p30
aS'Food'
p31
asS'medium'
p32
(lp33
sS'lastname'
p34
(lp35
S'Serrato Jr.'
p36
asS'company'
p37
(lp38
sS'quora'
p39
(lp40
sS'phone'
p41
(lp42
sS'etsy'
p43
(lp44
sS'gplus'
p45
(lp46
sS'vimeo'
p47
(lp48
sS'instagram'
p49
(lp50
S'http://instagram.com/robertserratojr'
p51
asS'twitter'
p52
(lp53
S'https://www.twitter.com/RobertSerratoJr'
p54
asS'vk'
p55
(lp56
sS'vine'
p57
(lp58
sS'linkedin'
p59
(lp60
S'http://www.linkedin.com/in/robertserrato'
p61
asS'tumblr'
p62
(lp63
sS'strava'
p64
(lp65
sS'fitbit'
p66
(lp67
sS'weibo'
p68
(lp69
sS'pinterest'
p70
(lp71
sS'wikipedia'
p72
(lp73
sS'state'
p74
(lp75
sS'flickr'
p76
(lp77
sS'email'
p78
(lp79
sS'goodreads'
p80
(lp81
sS'jobs'
p82
(lp83
S'Politics\n New Media\n Consulting'
p84
asS'firstname'
p85
(lp86
S'Robert'
p87
asS'spotify'
p88
(lp89
sS'kickstarter'
p90
(lp91
sS'fb'
p92
(lp93
S'http://www.facebook.com/RobertSerratoJr'
p94
asS'behance'
p95
(lp96
sS'soundcloud'
p97
(lp98
sS'github'
p99
(lp100
sS'yelp'
p101
(lp102
sS'country'
p103
(lp104
sS'youtube'
p105
(lp106
sS'websites'
p107
(lp108
sS'bio_text'
p109
S'Experience in New Media & PoliticsCandidate for Masters Degree in Government (CSUS)BA in Government & History (CSUS)AA in Humanities (SJDC)AA in Liberal Arts (SJDC)'
p110
s.