(dp0
S'blogger'
p1
(lp2
sS'bio_html'
p3
(lp4
S''
p5
ag5
asS'dribbble'
p6
(lp7
sS'city'
p8
(lp9
sS'500px'
p10
(lp11
sS'foursquare'
p12
(lp13
sS'wordpress'
p14
(lp15
sS'location'
p16
(lp17
sS'interests'
p18
(lp19
sS'medium'
p20
(lp21
sS'lastname'
p22
(lp23
S'Zuluaga'
p24
asS'company'
p25
(lp26
sS'quora'
p27
(lp28
sS'phone'
p29
(lp30
sS'etsy'
p31
(lp32
sS'gplus'
p33
(lp34
sS'vimeo'
p35
(lp36
sS'instagram'
p37
(lp38
sS'twitter'
p39
(lp40
sS'vk'
p41
(lp42
sS'vine'
p43
(lp44
sS'linkedin'
p45
(lp46
sS'tumblr'
p47
(lp48
sS'strava'
p49
(lp50
sS'fitbit'
p51
(lp52
sS'weibo'
p53
(lp54
sS'pinterest'
p55
(lp56
sS'wikipedia'
p57
(lp58
sS'state'
p59
(lp60
sS'flickr'
p61
(lp62
sS'email'
p63
(lp64
sS'goodreads'
p65
(lp66
sS'jobs'
p67
(lp68
sS'firstname'
p69
(lp70
S'Santiago'
p71
asS'spotify'
p72
(lp73
sS'kickstarter'
p74
(lp75
sS'fb'
p76
(lp77
sS'behance'
p78
(lp79
sS'soundcloud'
p80
(lp81
sS'github'
p82
(lp83
sS'yelp'
p84
(lp85
sS'country'
p86
(lp87
sS'youtube'
p88
(lp89
sS'websites'
p90
(lp91
sS'bio_text'
p92
g5
s.