(dp0
S'blogger'
p1
(lp2
sS'bio_html'
p3
(lp4
S"There is no limit to the amount of good you can do if you don't care who gets the credit. R.R"
p5
aS"There is no limit to the amount of good you can do if you don't care who gets the credit. R.R"
p6
asS'dribbble'
p7
(lp8
sS'city'
p9
(lp10
sS'500px'
p11
(lp12
sS'foursquare'
p13
(lp14
sS'wordpress'
p15
(lp16
sS'location'
p17
(lp18
sS'interests'
p19
(lp20
S'Emprendimiento'
p21
aS'Innovacin'
p22
aS'Participacin Ciudadana'
p23
aS'OpenGov'
p24
aS'Tecnologas de la Informacin'
p25
aS'Democracia y Desarrollo'
p26
asS'medium'
p27
(lp28
sS'lastname'
p29
(lp30
S'Zuluaga'
p31
asS'company'
p32
(lp33
sS'quora'
p34
(lp35
sS'phone'
p36
(lp37
S'316.525.83.97'
p38
asS'etsy'
p39
(lp40
sS'gplus'
p41
(lp42
sS'vimeo'
p43
(lp44
sS'instagram'
p45
(lp46
sS'twitter'
p47
(lp48
S'https://www.twitter.com/sergiozuluaga'
p49
asS'vk'
p50
(lp51
sS'vine'
p52
(lp53
sS'linkedin'
p54
(lp55
S'http://www.linkedin.com/in/sergiozuluaga'
p56
asS'tumblr'
p57
(lp58
S'http://sergiozuluaga.tumblr.com'
p59
asS'strava'
p60
(lp61
sS'fitbit'
p62
(lp63
sS'weibo'
p64
(lp65
sS'pinterest'
p66
(lp67
sS'wikipedia'
p68
(lp69
sS'state'
p70
(lp71
sS'flickr'
p72
(lp73
sS'email'
p74
(lp75
sS'goodreads'
p76
(lp77
sS'jobs'
p78
(lp79
S'Innpulsa Colombia'
p80
asS'firstname'
p81
(lp82
S'Sergio'
p83
asS'spotify'
p84
(lp85
sS'kickstarter'
p86
(lp87
sS'fb'
p88
(lp89
S'https://www.facebook.com/sergio.zuluaga'
p90
asS'behance'
p91
(lp92
sS'soundcloud'
p93
(lp94
sS'github'
p95
(lp96
sS'yelp'
p97
(lp98
sS'country'
p99
(lp100
sS'youtube'
p101
(lp102
sS'websites'
p103
(lp104
sS'bio_text'
p105
S"There is no limit to the amount of good you can do if you don't care who gets the credit. R.R"
p106
s.