(dp0
S'blogger'
p1
(lp2
sS'bio_html'
p3
(lp4
S'Estudiante de Contaduria Publica en la Universidad Nacional de Colombia. Student brand manager en Red Bull Colombia y jugador de ultimate frisbee en Euforia Ultimate.'
p5
aS'Estudiante de Contaduria Publica en la Universidad Nacional de Colombia. Student brand manager en Red Bull Colombia y jugador de ultimate frisbee en Euforia Ultimate.'
p6
asS'dribbble'
p7
(lp8
sS'city'
p9
(lp10
sS'500px'
p11
(lp12
sS'foursquare'
p13
(lp14
sS'wordpress'
p15
(lp16
S'http://kevinserrato07.wordpress.com'
p17
asS'location'
p18
(lp19
S'Bogota'
p20
aS'Colombia'
p21
asS'interests'
p22
(lp23
sS'medium'
p24
(lp25
sS'lastname'
p26
(lp27
S'Serrato'
p28
asS'company'
p29
(lp30
sS'quora'
p31
(lp32
sS'phone'
p33
(lp34
sS'etsy'
p35
(lp36
sS'gplus'
p37
(lp38
sS'vimeo'
p39
(lp40
sS'instagram'
p41
(lp42
sS'twitter'
p43
(lp44
S'https://www.twitter.com/KevinSerrato75'
p45
asS'vk'
p46
(lp47
sS'vine'
p48
(lp49
sS'linkedin'
p50
(lp51
sS'tumblr'
p52
(lp53
sS'strava'
p54
(lp55
sS'fitbit'
p56
(lp57
sS'weibo'
p58
(lp59
sS'pinterest'
p60
(lp61
sS'wikipedia'
p62
(lp63
sS'state'
p64
(lp65
sS'flickr'
p66
(lp67
sS'email'
p68
(lp69
sS'goodreads'
p70
(lp71
sS'jobs'
p72
(lp73
S'Red Bull'
p74
asS'firstname'
p75
(lp76
S'Kevin'
p77
asS'spotify'
p78
(lp79
sS'kickstarter'
p80
(lp81
sS'fb'
p82
(lp83
S'http://www.facebook.com/marioun2010'
p84
asS'behance'
p85
(lp86
sS'soundcloud'
p87
(lp88
sS'github'
p89
(lp90
sS'yelp'
p91
(lp92
sS'country'
p93
(lp94
sS'youtube'
p95
(lp96
sS'websites'
p97
(lp98
sS'bio_text'
p99
S'Estudiante de Contaduria Publica en la Universidad Nacional de Colombia. Student brand manager en Red Bull Colombia y jugador de ultimate frisbee en Euforia Ultimate.'
p100
s.