(dp0
S'blogger'
p1
(lp2
sS'bio_html'
p3
(lp4
S'Sinny, 22 year old gentle giant. A proud member of the Greenwing Macaw family (the second biggest of the parrots) who hail from Latin America. Spends his time grooming, eating, playing, listening to the radio and training with Judy and the team. Is respectful of everyone but has definite human favourites.'
p5
aS'Sinny, 22 year old gentle giant. A proud member of the Greenwing Macaw family (the second biggest of the parrots) who hail from Latin America. Spends his time grooming, eating, playing, listening to the radio and training with Judy and the team. Is respectful of everyone but has definite human favourites.'
p6
asS'dribbble'
p7
(lp8
sS'city'
p9
(lp10
sS'500px'
p11
(lp12
sS'foursquare'
p13
(lp14
sS'wordpress'
p15
(lp16
sS'location'
p17
(lp18
sS'interests'
p19
(lp20
S'Sinny'
p21
aS'parrot'
p22
aS'macaw'
p23
asS'medium'
p24
(lp25
sS'lastname'
p26
(lp27
S'Macaw'
p28
asS'company'
p29
(lp30
sS'quora'
p31
(lp32
sS'phone'
p33
(lp34
sS'etsy'
p35
(lp36
sS'gplus'
p37
(lp38
sS'vimeo'
p39
(lp40
sS'instagram'
p41
(lp42
sS'twitter'
p43
(lp44
sS'vk'
p45
(lp46
sS'vine'
p47
(lp48
sS'linkedin'
p49
(lp50
sS'tumblr'
p51
(lp52
sS'strava'
p53
(lp54
sS'fitbit'
p55
(lp56
sS'weibo'
p57
(lp58
sS'pinterest'
p59
(lp60
sS'wikipedia'
p61
(lp62
sS'state'
p63
(lp64
sS'flickr'
p65
(lp66
sS'email'
p67
(lp68
sS'goodreads'
p69
(lp70
sS'jobs'
p71
(lp72
sS'firstname'
p73
(lp74
S'Sinny'
p75
asS'spotify'
p76
(lp77
sS'kickstarter'
p78
(lp79
sS'fb'
p80
(lp81
sS'behance'
p82
(lp83
sS'soundcloud'
p84
(lp85
sS'github'
p86
(lp87
sS'yelp'
p88
(lp89
sS'country'
p90
(lp91
sS'youtube'
p92
(lp93
sS'websites'
p94
(lp95
S'http://www.parrotpartner.com'
p96
asS'bio_text'
p97
S'Sinny, 22 year old gentle giant. A proud member of the Greenwing Macaw family (the second biggest of the parrots) who hail from Latin America. Spends his time grooming, eating, playing, listening to the radio and training with Judy and the team. Is respectful of everyone but has definite human favourites.'
p98
s.