(dp0
S'blogger'
p1
(lp2
sS'bio_html'
p3
(lp4
S'freelance photographer based in Chicago, ILfor hire. will travel.'
p5
aS'freelance photographer based in Chicago, ILfor hire. will travel.'
p6
asS'dribbble'
p7
(lp8
sS'city'
p9
(lp10
sS'500px'
p11
(lp12
sS'foursquare'
p13
(lp14
sS'wordpress'
p15
(lp16
sS'location'
p17
(lp18
sS'interests'
p19
(lp20
sS'medium'
p21
(lp22
sS'lastname'
p23
(lp24
S'Serrato'
p25
asS'company'
p26
(lp27
sS'quora'
p28
(lp29
sS'phone'
p30
(lp31
sS'etsy'
p32
(lp33
sS'gplus'
p34
(lp35
sS'vimeo'
p36
(lp37
S'http://vimeo.com/lixx'
p38
asS'instagram'
p39
(lp40
sS'twitter'
p41
(lp42
sS'vk'
p43
(lp44
sS'vine'
p45
(lp46
sS'linkedin'
p47
(lp48
S'http://www.linkedin.com/pub/allie-serrato/b/205/5b9'
p49
asS'tumblr'
p50
(lp51
sS'strava'
p52
(lp53
sS'fitbit'
p54
(lp55
sS'weibo'
p56
(lp57
sS'pinterest'
p58
(lp59
sS'wikipedia'
p60
(lp61
sS'state'
p62
(lp63
sS'flickr'
p64
(lp65
S'http://www.flickr.com/people/plasticjesus/'
p66
asS'email'
p67
(lp68
sS'goodreads'
p69
(lp70
sS'jobs'
p71
(lp72
sS'firstname'
p73
(lp74
S'Allie'
p75
asS'spotify'
p76
(lp77
sS'kickstarter'
p78
(lp79
sS'fb'
p80
(lp81
sS'behance'
p82
(lp83
sS'soundcloud'
p84
(lp85
sS'github'
p86
(lp87
sS'yelp'
p88
(lp89
sS'country'
p90
(lp91
sS'youtube'
p92
(lp93
sS'websites'
p94
(lp95
S'http://serratophoto.com'
p96
asS'bio_text'
p97
S'freelance photographer based in Chicago, ILfor hire. will travel.'
p98
s.