(dp0
S'blogger'
p1
(lp2
sS'bio_html'
p3
(lp4
S'Mi nombre es Ronald Andrs Rozo Zuluaga tengo 26 aos nac en Sincelejo (Sucre), trabajo en la Secretara General de la Alcalda Mayor de Bogot desde hace 3 aos. estudi Comercio y Negocios internacionales.A fin de ampliar mis conocimientos y mi campo de accin laboral, me propuse culminar el programa de Administracin de Empresas en la Universidad EAN.'
p5
aS'Mi nombre es Ronald Andrs Rozo Zuluaga tengo 26 aos nac en Sincelejo (Sucre), trabajo en la Secretara General de la Alcalda Mayor de Bogot desde hace 3 aos. estudi Comercio y Negocios internacionales.A fin de ampliar mis conocimientos y mi campo de accin laboral, me propuse culminar el programa de Administracin de Empresas en la Universidad EAN.'
p6
asS'dribbble'
p7
(lp8
sS'city'
p9
(lp10
sS'500px'
p11
(lp12
sS'foursquare'
p13
(lp14
sS'wordpress'
p15
(lp16
sS'location'
p17
(lp18
sS'interests'
p19
(lp20
sS'medium'
p21
(lp22
sS'lastname'
p23
(lp24
S'Rozo Zuluaga'
p25
asS'company'
p26
(lp27
sS'quora'
p28
(lp29
sS'phone'
p30
(lp31
sS'etsy'
p32
(lp33
sS'gplus'
p34
(lp35
sS'vimeo'
p36
(lp37
sS'instagram'
p38
(lp39
sS'twitter'
p40
(lp41
sS'vk'
p42
(lp43
sS'vine'
p44
(lp45
sS'linkedin'
p46
(lp47
sS'tumblr'
p48
(lp49
sS'strava'
p50
(lp51
sS'fitbit'
p52
(lp53
sS'weibo'
p54
(lp55
sS'pinterest'
p56
(lp57
sS'wikipedia'
p58
(lp59
sS'state'
p60
(lp61
sS'flickr'
p62
(lp63
sS'email'
p64
(lp65
sS'goodreads'
p66
(lp67
sS'jobs'
p68
(lp69
sS'firstname'
p70
(lp71
S'Ronald Andres'
p72
asS'spotify'
p73
(lp74
sS'kickstarter'
p75
(lp76
sS'fb'
p77
(lp78
sS'behance'
p79
(lp80
sS'soundcloud'
p81
(lp82
sS'github'
p83
(lp84
sS'yelp'
p85
(lp86
sS'country'
p87
(lp88
sS'youtube'
p89
(lp90
sS'websites'
p91
(lp92
sS'bio_text'
p93
S'Mi nombre es Ronald Andrs Rozo Zuluaga tengo 26 aos nac en Sincelejo (Sucre), trabajo en la Secretara General de la Alcalda Mayor de Bogot desde hace 3 aos. estudi Comercio y Negocios internacionales.A fin de ampliar mis conocimientos y mi campo de accin laboral, me propuse culminar el programa de Administracin de Empresas en la Universidad EAN.'
p94
s.