(dp0
S'blogger'
p1
(lp2
sS'bio_html'
p3
(lp4
S'naci el 23 de noviembre en san rafael antioquia, en el ao 1986. actualmente tengo 26 aos, soy diseador grafico con un fuerte gusto por la ilustracion, me encuentro culminando con mis estudios en "maestro en artes plasticas" en la universidad de antioquia, y practico el skate boarding hace aproximadamente 11 aos, el cual relaciono con mis trabajos personales, y propuestas artisticas.'
p5
aS'naci el 23 de noviembre en san rafael antioquia, en el ao 1986. actualmente tengo 26 aos, soy diseador grafico con un fuerte gusto por la ilustracion, me encuentro culminando con mis estudios en "maestro en artes plasticas" en la universidad de antioquia, y practico el skate boarding hace aproximadamente 11 aos, el cual relaciono con mis trabajos personales, y propuestas artisticas.'
p6
asS'dribbble'
p7
(lp8
sS'city'
p9
(lp10
sS'500px'
p11
(lp12
sS'foursquare'
p13
(lp14
sS'wordpress'
p15
(lp16
sS'location'
p17
(lp18
S'medellin- colombia'
p19
asS'interests'
p20
(lp21
sS'medium'
p22
(lp23
sS'lastname'
p24
(lp25
S'Zuluaga'
p26
asS'company'
p27
(lp28
sS'quora'
p29
(lp30
sS'phone'
p31
(lp32
sS'etsy'
p33
(lp34
sS'gplus'
p35
(lp36
sS'vimeo'
p37
(lp38
sS'instagram'
p39
(lp40
S'http://instagram.com/uri11233'
p41
asS'twitter'
p42
(lp43
sS'vk'
p44
(lp45
sS'vine'
p46
(lp47
sS'linkedin'
p48
(lp49
sS'tumblr'
p50
(lp51
sS'strava'
p52
(lp53
sS'fitbit'
p54
(lp55
sS'weibo'
p56
(lp57
sS'pinterest'
p58
(lp59
sS'wikipedia'
p60
(lp61
sS'state'
p62
(lp63
sS'flickr'
p64
(lp65
sS'email'
p66
(lp67
sS'goodreads'
p68
(lp69
sS'jobs'
p70
(lp71
S'skater'
p72
asS'firstname'
p73
(lp74
S'Uriel'
p75
asS'spotify'
p76
(lp77
sS'kickstarter'
p78
(lp79
sS'fb'
p80
(lp81
S'http://www.facebook.com/urisk8'
p82
asS'behance'
p83
(lp84
sS'soundcloud'
p85
(lp86
sS'github'
p87
(lp88
sS'yelp'
p89
(lp90
sS'country'
p91
(lp92
sS'youtube'
p93
(lp94
sS'websites'
p95
(lp96
sS'bio_text'
p97
S'naci el 23 de noviembre en san rafael antioquia, en el ao 1986. actualmente tengo 26 aos, soy diseador grafico con un fuerte gusto por la ilustracion, me encuentro culminando con mis estudios en "maestro en artes plasticas" en la universidad de antioquia, y practico el skate boarding hace aproximadamente 11 aos, el cual relaciono con mis trabajos personales, y propuestas artisticas.'
p98
s.