(dp0
S'blogger'
p1
(lp2
sS'bio_html'
p3
(lp4
S''
p5
ag5
asS'dribbble'
p6
(lp7
sS'city'
p8
(lp9
sS'500px'
p10
(lp11
sS'foursquare'
p12
(lp13
sS'wordpress'
p14
(lp15
sS'location'
p16
(lp17
sS'interests'
p18
(lp19
S'experiencial branding'
p20
aS'design'
p21
aS'styling'
p22
asS'medium'
p23
(lp24
sS'lastname'
p25
(lp26
S'Zuluaga'
p27
asS'company'
p28
(lp29
sS'quora'
p30
(lp31
sS'phone'
p32
(lp33
sS'etsy'
p34
(lp35
sS'gplus'
p36
(lp37
sS'vimeo'
p38
(lp39
sS'instagram'
p40
(lp41
sS'twitter'
p42
(lp43
sS'vk'
p44
(lp45
sS'vine'
p46
(lp47
sS'linkedin'
p48
(lp49
S'http://www.linkedin.com/in/valeriezuluaga'
p50
asS'tumblr'
p51
(lp52
S'http://nutritiousmatter.tumblr.com'
p53
asS'strava'
p54
(lp55
sS'fitbit'
p56
(lp57
sS'weibo'
p58
(lp59
sS'pinterest'
p60
(lp61
sS'wikipedia'
p62
(lp63
sS'state'
p64
(lp65
sS'flickr'
p66
(lp67
sS'email'
p68
(lp69
sS'goodreads'
p70
(lp71
sS'jobs'
p72
(lp73
sS'firstname'
p74
(lp75
S'Valerie'
p76
asS'spotify'
p77
(lp78
sS'kickstarter'
p79
(lp80
sS'fb'
p81
(lp82
sS'behance'
p83
(lp84
sS'soundcloud'
p85
(lp86
sS'github'
p87
(lp88
sS'yelp'
p89
(lp90
sS'country'
p91
(lp92
sS'youtube'
p93
(lp94
sS'websites'
p95
(lp96
S'http://validdesignco.com'
p97
aS'http://pinterest.com/valzulu/'
p98
asS'bio_text'
p99
g5
s.