(dp0
S'blogger'
p1
(lp2
sS'bio_html'
p3
(lp4
S''
p5
ag5
asS'dribbble'
p6
(lp7
sS'city'
p8
(lp9
sS'500px'
p10
(lp11
sS'foursquare'
p12
(lp13
sS'wordpress'
p14
(lp15
sS'location'
p16
(lp17
sS'interests'
p18
(lp19
sS'medium'
p20
(lp21
sS'lastname'
p22
(lp23
S'Zuluaga'
p24
asS'company'
p25
(lp26
sS'quora'
p27
(lp28
sS'phone'
p29
(lp30
sS'etsy'
p31
(lp32
sS'gplus'
p33
(lp34
sS'vimeo'
p35
(lp36
sS'instagram'
p37
(lp38
sS'twitter'
p39
(lp40
sS'vk'
p41
(lp42
sS'vine'
p43
(lp44
sS'linkedin'
p45
(lp46
S'https://www.linkedin.com/pub/edison-zuluaga/28/586/1a3'
p47
asS'tumblr'
p48
(lp49
sS'strava'
p50
(lp51
sS'fitbit'
p52
(lp53
sS'weibo'
p54
(lp55
sS'pinterest'
p56
(lp57
sS'wikipedia'
p58
(lp59
sS'state'
p60
(lp61
sS'flickr'
p62
(lp63
sS'email'
p64
(lp65
sS'goodreads'
p66
(lp67
sS'jobs'
p68
(lp69
sS'firstname'
p70
(lp71
S'Edison'
p72
asS'spotify'
p73
(lp74
sS'kickstarter'
p75
(lp76
sS'fb'
p77
(lp78
S'https://www.facebook.com/edison.zuluaga'
p79
asS'behance'
p80
(lp81
sS'soundcloud'
p82
(lp83
sS'github'
p84
(lp85
sS'yelp'
p86
(lp87
sS'country'
p88
(lp89
sS'youtube'
p90
(lp91
sS'websites'
p92
(lp93
sS'bio_text'
p94
g5
s.