(dp0
S'blogger'
p1
(lp2
S'http://www.segurosdevehiculo.com/'
p3
asS'bio_html'
p4
(lp5
S'En la actualidad me desempeo en el rea de siniestros en Granseguros. Vivo en Medelln Colombia'
p6
aS'En la actualidad me desempeo en el rea de siniestros en Granseguros. Vivo en Medelln Colombia'
p7
asS'dribbble'
p8
(lp9
sS'city'
p10
(lp11
sS'500px'
p12
(lp13
sS'foursquare'
p14
(lp15
sS'wordpress'
p16
(lp17
sS'location'
p18
(lp19
sS'interests'
p20
(lp21
S'seguros de vida'
p22
aS'seguros de vehiculo'
p23
aS'seguros de hogar'
p24
aS'poliza de cumplimiento'
p25
asS'medium'
p26
(lp27
sS'lastname'
p28
(lp29
S'Zuluaga'
p30
asS'company'
p31
(lp32
sS'quora'
p33
(lp34
sS'phone'
p35
(lp36
sS'etsy'
p37
(lp38
sS'gplus'
p39
(lp40
S'http://plus.google.com/112855443461055233835/'
p41
asS'vimeo'
p42
(lp43
sS'instagram'
p44
(lp45
sS'twitter'
p46
(lp47
S'https://www.twitter.com/danielzzuluaga'
p48
asS'vk'
p49
(lp50
sS'vine'
p51
(lp52
sS'linkedin'
p53
(lp54
S'http://www.linkedin.com/pub/daniel-alejandro-zuluaga/58/697/314'
p55
asS'tumblr'
p56
(lp57
sS'strava'
p58
(lp59
sS'fitbit'
p60
(lp61
sS'weibo'
p62
(lp63
sS'pinterest'
p64
(lp65
sS'wikipedia'
p66
(lp67
sS'state'
p68
(lp69
sS'flickr'
p70
(lp71
sS'email'
p72
(lp73
sS'goodreads'
p74
(lp75
sS'jobs'
p76
(lp77
sS'firstname'
p78
(lp79
S'Daniel'
p80
asS'spotify'
p81
(lp82
sS'kickstarter'
p83
(lp84
sS'fb'
p85
(lp86
sS'behance'
p87
(lp88
sS'soundcloud'
p89
(lp90
sS'github'
p91
(lp92
sS'yelp'
p93
(lp94
sS'country'
p95
(lp96
sS'youtube'
p97
(lp98
sS'websites'
p99
(lp100
S'http://facebook.com/granseguros'
p101
asS'bio_text'
p102
S'En la actualidad me desempeo en el rea de siniestros en Granseguros. Vivo en Medelln Colombia'
p103
s.