(dp0
S'blogger'
p1
(lp2
sS'bio_html'
p3
(lp4
S'Mi nombre es Jose David Zuluaga, tengo 39 aos, vivo y soy de Bogota, trabajo en el Instituto Nacional y Penitenciario y Carcelario "INPEC", soy Bachiller Academico del colegio Distrital Jose Maria Cordoba de Bogota, Tengo varios cursos y seminarios tantos presenciales como virtuales.'
p5
aS'Mi nombre es Jose David Zuluaga, tengo 39 aos, vivo y soy de Bogota, trabajo en el Instituto Nacional y Penitenciario y Carcelario "INPEC", soy Bachiller Academico del colegio Distrital Jose Maria Cordoba de Bogota, Tengo varios cursos y seminarios tantos presenciales como virtuales.'
p6
asS'dribbble'
p7
(lp8
sS'city'
p9
(lp10
sS'500px'
p11
(lp12
sS'foursquare'
p13
(lp14
sS'wordpress'
p15
(lp16
sS'location'
p17
(lp18
S'Bogota - Colombia'
p19
asS'interests'
p20
(lp21
S'La lectura'
p22
asS'medium'
p23
(lp24
sS'lastname'
p25
(lp26
S'Zuluaga Mazo'
p27
asS'company'
p28
(lp29
sS'quora'
p30
(lp31
sS'phone'
p32
(lp33
S'1-313-547-7681'
p34
asS'etsy'
p35
(lp36
sS'gplus'
p37
(lp38
sS'vimeo'
p39
(lp40
sS'instagram'
p41
(lp42
sS'twitter'
p43
(lp44
S'https://www.twitter.com/JODAZUMA'
p45
asS'vk'
p46
(lp47
sS'vine'
p48
(lp49
sS'linkedin'
p50
(lp51
sS'tumblr'
p52
(lp53
sS'strava'
p54
(lp55
sS'fitbit'
p56
(lp57
sS'weibo'
p58
(lp59
sS'pinterest'
p60
(lp61
sS'wikipedia'
p62
(lp63
sS'state'
p64
(lp65
sS'flickr'
p66
(lp67
sS'email'
p68
(lp69
sS'goodreads'
p70
(lp71
sS'jobs'
p72
(lp73
S'Instituto Nacional y Penitenciario "INPEC"'
p74
asS'firstname'
p75
(lp76
S'Jose David'
p77
asS'spotify'
p78
(lp79
sS'kickstarter'
p80
(lp81
sS'fb'
p82
(lp83
S'https://www.facebook.com/jose.d.mazo'
p84
asS'behance'
p85
(lp86
sS'soundcloud'
p87
(lp88
sS'github'
p89
(lp90
sS'yelp'
p91
(lp92
sS'country'
p93
(lp94
sS'youtube'
p95
(lp96
sS'websites'
p97
(lp98
sS'bio_text'
p99
S'Mi nombre es Jose David Zuluaga, tengo 39 aos, vivo y soy de Bogota, trabajo en el Instituto Nacional y Penitenciario y Carcelario "INPEC", soy Bachiller Academico del colegio Distrital Jose Maria Cordoba de Bogota, Tengo varios cursos y seminarios tantos presenciales como virtuales.'
p100
s.